   1               		.file	"ff.c"
   2               	__SREG__ = 0x3f
   3               	__SP_H__ = 0x3e
   4               	__SP_L__ = 0x3d
   5               	__CCP__  = 0x34
   6               	__tmp_reg__ = 0
   7               	__zero_reg__ = 1
  15               	.Ltext0:
  16               		.section	.text.mem_cpy,"ax",@progbits
  18               	mem_cpy:
  19               	.LFB136:
  20               	.LSM0:
  21               	.LVL0:
  22 0000 0F93      		push r16
  23 0002 1F93      		push r17
  24 0004 CF93      		push r28
  25 0006 DF93      		push r29
  26               	/* prologue: function */
  27               	/* frame size = 0 */
  28 0008 8C01      		movw r16,r24
  29 000a EB01      		movw r28,r22
  30 000c BA01      		movw r22,r20
  31               	.LVL1:
  32               	.LSM1:
  33 000e 20E0      		ldi r18,lo8(0)
  34 0010 30E0      		ldi r19,hi8(0)
  35 0012 00C0      		rjmp .L2
  36               	.LVL2:
  37               	.L3:
  38               	.LSM2:
  39 0014 F801      		movw r30,r16
  40 0016 E20F      		add r30,r18
  41 0018 F31F      		adc r31,r19
  42 001a DE01      		movw r26,r28
  43 001c A20F      		add r26,r18
  44 001e B31F      		adc r27,r19
  45 0020 8D91      		ld r24,X+
  46 0022 9C91      		ld r25,X
  47 0024 9183      		std Z+1,r25
  48 0026 8083      		st Z,r24
  49               	.LSM3:
  50 0028 4250      		subi r20,lo8(-(-2))
  51 002a 5040      		sbci r21,hi8(-(-2))
  52 002c 2E5F      		subi r18,lo8(-(2))
  53 002e 3F4F      		sbci r19,hi8(-(2))
  54               	.LVL3:
  55               	.L2:
  56               	.LSM4:
  57 0030 4230      		cpi r20,2
  58 0032 5105      		cpc r21,__zero_reg__
  59 0034 00F4      		brsh .L3
  60               	.LSM5:
  61 0036 CB01      		movw r24,r22
  62 0038 8E7F      		andi r24,lo8(-2)
  63 003a DE01      		movw r26,r28
  64               	.LVL4:
  65 003c A80F      		add r26,r24
  66 003e B91F      		adc r27,r25
  67 0040 F801      		movw r30,r16
  68               	.LVL5:
  69 0042 E80F      		add r30,r24
  70 0044 F91F      		adc r31,r25
  71               	.LSM6:
  72 0046 60FF      		sbrs r22,0
  73 0048 00C0      		rjmp .L5
  74               	.LVL6:
  75               	.LSM7:
  76 004a 8C91      		ld r24,X
  77 004c 8083      		st Z,r24
  78               	.L5:
  79               	/* epilogue start */
  80               	.LSM8:
  81 004e DF91      		pop r29
  82 0050 CF91      		pop r28
  83               	.LVL7:
  84 0052 1F91      		pop r17
  85 0054 0F91      		pop r16
  86               	.LVL8:
  87 0056 0895      		ret
  88               	.LFE136:
  90               		.section	.text.mem_set,"ax",@progbits
  92               	mem_set:
  93               	.LFB137:
  94               	.LSM9:
  95               	.LVL9:
  96               	/* prologue: function */
  97               	/* frame size = 0 */
  98               	.LSM10:
  99 0000 FC01      		movw r30,r24
 100               	.LVL10:
 101 0002 00C0      		rjmp .L7
 102               	.LVL11:
 103               	.L8:
 104               	.LSM11:
 105 0004 6193      		st Z+,r22
 106 0006 4150      		subi r20,lo8(-(-1))
 107 0008 5040      		sbci r21,hi8(-(-1))
 108               	.LVL12:
 109               	.L7:
 110               	.LSM12:
 111 000a 4115      		cp r20,__zero_reg__
 112 000c 5105      		cpc r21,__zero_reg__
 113 000e 01F4      		brne .L8
 114               	/* epilogue start */
 115               	.LSM13:
 116 0010 0895      		ret
 117               	.LFE137:
 119               		.section	.text.clust2sect,"ax",@progbits
 120               	.global	clust2sect
 122               	clust2sect:
 123               	.LFB142:
 124               	.LSM14:
 125               	.LVL13:
 126 0000 EF92      		push r14
 127 0002 FF92      		push r15
 128 0004 0F93      		push r16
 129 0006 1F93      		push r17
 130 0008 CF93      		push r28
 131 000a DF93      		push r29
 132               	/* prologue: function */
 133               	/* frame size = 0 */
 134 000c EC01      		movw r28,r24
 135 000e 7A01      		movw r14,r20
 136 0010 8B01      		movw r16,r22
 137               	.LSM15:
 138 0012 8EEF      		ldi r24,lo8(-2)
 139 0014 9FEF      		ldi r25,hi8(-2)
 140 0016 AFEF      		ldi r26,hlo8(-2)
 141 0018 BFEF      		ldi r27,hhi8(-2)
 142               	.LVL14:
 143 001a E80E      		add r14,r24
 144 001c F91E      		adc r15,r25
 145 001e 0A1F      		adc r16,r26
 146 0020 1B1F      		adc r17,r27
 147               	.LVL15:
 148               	.LSM16:
 149 0022 8E89      		ldd r24,Y+22
 150 0024 9F89      		ldd r25,Y+23
 151 0026 A88D      		ldd r26,Y+24
 152 0028 B98D      		ldd r27,Y+25
 153 002a 0297      		sbiw r24,2
 154 002c A109      		sbc r26,__zero_reg__
 155 002e B109      		sbc r27,__zero_reg__
 156 0030 E816      		cp r14,r24
 157 0032 F906      		cpc r15,r25
 158 0034 0A07      		cpc r16,r26
 159 0036 1B07      		cpc r17,r27
 160 0038 00F0      		brlo .L11
 161 003a 20E0      		ldi r18,lo8(0)
 162 003c 30E0      		ldi r19,hi8(0)
 163 003e 40E0      		ldi r20,hlo8(0)
 164 0040 50E0      		ldi r21,hhi8(0)
 165 0042 00C0      		rjmp .L12
 166               	.L11:
 167               	.LSM17:
 168 0044 2A81      		ldd r18,Y+2
 169 0046 30E0      		ldi r19,lo8(0)
 170 0048 40E0      		ldi r20,lo8(0)
 171 004a 50E0      		ldi r21,hi8(0)
 172 004c C801      		movw r24,r16
 173 004e B701      		movw r22,r14
 174 0050 0E94 0000 		call __mulsi3
 175 0054 9B01      		movw r18,r22
 176 0056 AC01      		movw r20,r24
 177 0058 8EA1      		ldd r24,Y+38
 178 005a 9FA1      		ldd r25,Y+39
 179 005c A8A5      		ldd r26,Y+40
 180 005e B9A5      		ldd r27,Y+41
 181 0060 280F      		add r18,r24
 182 0062 391F      		adc r19,r25
 183 0064 4A1F      		adc r20,r26
 184 0066 5B1F      		adc r21,r27
 185               	.L12:
 186               	.LSM18:
 187 0068 B901      		movw r22,r18
 188 006a CA01      		movw r24,r20
 189               	/* epilogue start */
 190 006c DF91      		pop r29
 191 006e CF91      		pop r28
 192               	.LVL16:
 193 0070 1F91      		pop r17
 194 0072 0F91      		pop r16
 195 0074 FF90      		pop r15
 196 0076 EF90      		pop r14
 197               	.LVL17:
 198 0078 0895      		ret
 199               	.LFE142:
 201               		.section	.text.f_mount,"ax",@progbits
 202               	.global	f_mount
 204               	f_mount:
 205               	.LFB156:
 206               	.LSM19:
 207               	.LVL18:
 208               	/* prologue: function */
 209               	/* frame size = 0 */
 210 0000 DB01      		movw r26,r22
 211               	.LSM20:
 212 0002 8823      		tst r24
 213 0004 01F0      		breq .L15
 214               	.LVL19:
 215 0006 8BE0      		ldi r24,lo8(11)
 216               	.LVL20:
 217 0008 0895      		ret
 218               	.LVL21:
 219               	.L15:
 220               	.LSM21:
 221 000a E091 0000 		lds r30,FatFs
 222 000e F091 0000 		lds r31,(FatFs)+1
 223               	.LVL22:
 224               	.LSM22:
 225 0012 3097      		sbiw r30,0
 226 0014 01F0      		breq .L17
 227               	.LSM23:
 228 0016 1082      		st Z,__zero_reg__
 229               	.L17:
 230               	.LSM24:
 231 0018 1097      		sbiw r26,0
 232 001a 01F0      		breq .L18
 233               	.LSM25:
 234 001c 1C92      		st X,__zero_reg__
 235               	.L18:
 236               	.LSM26:
 237 001e B093 0000 		sts (FatFs)+1,r27
 238 0022 A093 0000 		sts FatFs,r26
 239 0026 80E0      		ldi r24,lo8(0)
 240               	.LVL23:
 241               	.LSM27:
 242 0028 0895      		ret
 243               	.LFE156:
 245               		.section	.text.validate,"ax",@progbits
 247               	validate:
 248               	.LFB155:
 249               	.LSM28:
 250               	.LVL24:
 251               	/* prologue: function */
 252               	/* frame size = 0 */
 253 0000 FC01      		movw r30,r24
 254               	.LSM29:
 255 0002 0097      		sbiw r24,0
 256 0004 01F0      		breq .L21
 257 0006 8081      		ld r24,Z
 258               	.LVL25:
 259 0008 8823      		tst r24
 260 000a 01F0      		breq .L21
 261 000c 8681      		ldd r24,Z+6
 262 000e 9781      		ldd r25,Z+7
 263 0010 8617      		cp r24,r22
 264 0012 9707      		cpc r25,r23
 265 0014 01F4      		brne .L21
 266               	.LSM30:
 267 0016 8181      		ldd r24,Z+1
 268 0018 0E94 0000 		call disk_status
 269               	.LVL26:
 270 001c 80FD      		sbrc r24,0
 271 001e 00C0      		rjmp .L22
 272 0020 80E0      		ldi r24,lo8(0)
 273 0022 0895      		ret
 274               	.L22:
 275 0024 83E0      		ldi r24,lo8(3)
 276 0026 0895      		ret
 277               	.LVL27:
 278               	.L21:
 279 0028 89E0      		ldi r24,lo8(9)
 280               	.LSM31:
 281 002a 0895      		ret
 282               	.LFE155:
 284               		.section	.text.move_window,"ax",@progbits
 286               	move_window:
 287               	.LFB140:
 288               	.LSM32:
 289               	.LVL28:
 290 0000 6F92      		push r6
 291 0002 7F92      		push r7
 292 0004 8F92      		push r8
 293 0006 9F92      		push r9
 294 0008 AF92      		push r10
 295 000a BF92      		push r11
 296 000c CF92      		push r12
 297 000e DF92      		push r13
 298 0010 EF92      		push r14
 299 0012 FF92      		push r15
 300 0014 0F93      		push r16
 301 0016 1F93      		push r17
 302 0018 CF93      		push r28
 303 001a DF93      		push r29
 304               	/* prologue: function */
 305               	/* frame size = 0 */
 306 001c EC01      		movw r28,r24
 307 001e 4A01      		movw r8,r20
 308 0020 5B01      		movw r10,r22
 309               	.LSM33:
 310 0022 CAA4      		ldd r12,Y+42
 311 0024 DBA4      		ldd r13,Y+43
 312 0026 ECA4      		ldd r14,Y+44
 313 0028 FDA4      		ldd r15,Y+45
 314               	.LVL29:
 315               	.LSM34:
 316 002a C416      		cp r12,r20
 317 002c D506      		cpc r13,r21
 318 002e E606      		cpc r14,r22
 319 0030 F706      		cpc r15,r23
 320 0032 01F4      		brne .+2
 321 0034 00C0      		rjmp .L26
 322               	.LVL30:
 323               	.LSM35:
 324 0036 8C81      		ldd r24,Y+4
 325 0038 8823      		tst r24
 326 003a 01F0      		breq .L27
 327               	.LSM36:
 328 003c 8EE2      		ldi r24,lo8(46)
 329 003e 682E      		mov r6,r24
 330 0040 712C      		mov r7,__zero_reg__
 331 0042 6C0E      		add r6,r28
 332 0044 7D1E      		adc r7,r29
 333 0046 8981      		ldd r24,Y+1
 334 0048 B301      		movw r22,r6
 335 004a A701      		movw r20,r14
 336 004c 9601      		movw r18,r12
 337 004e 01E0      		ldi r16,lo8(1)
 338 0050 0E94 0000 		call disk_write
 339               	.LVL31:
 340 0054 8823      		tst r24
 341 0056 01F4      		brne .L28
 342               	.LSM37:
 343 0058 1C82      		std Y+4,__zero_reg__
 344               	.LSM38:
 345 005a 8A8D      		ldd r24,Y+26
 346 005c 9B8D      		ldd r25,Y+27
 347 005e AC8D      		ldd r26,Y+28
 348 0060 BD8D      		ldd r27,Y+29
 349 0062 2E8D      		ldd r18,Y+30
 350 0064 3F8D      		ldd r19,Y+31
 351 0066 48A1      		ldd r20,Y+32
 352 0068 59A1      		ldd r21,Y+33
 353 006a 820F      		add r24,r18
 354 006c 931F      		adc r25,r19
 355 006e A41F      		adc r26,r20
 356 0070 B51F      		adc r27,r21
 357 0072 C816      		cp r12,r24
 358 0074 D906      		cpc r13,r25
 359 0076 EA06      		cpc r14,r26
 360 0078 FB06      		cpc r15,r27
 361 007a 00F4      		brsh .L27
 362               	.LBB2:
 363               	.LSM39:
 364 007c 1B81      		ldd r17,Y+3
 365               	.LVL32:
 366 007e 00C0      		rjmp .L29
 367               	.L30:
 368               	.LSM40:
 369 0080 8A8D      		ldd r24,Y+26
 370 0082 9B8D      		ldd r25,Y+27
 371 0084 AC8D      		ldd r26,Y+28
 372 0086 BD8D      		ldd r27,Y+29
 373 0088 C80E      		add r12,r24
 374 008a D91E      		adc r13,r25
 375 008c EA1E      		adc r14,r26
 376 008e FB1E      		adc r15,r27
 377               	.LSM41:
 378 0090 8981      		ldd r24,Y+1
 379 0092 B301      		movw r22,r6
 380 0094 A701      		movw r20,r14
 381 0096 9601      		movw r18,r12
 382 0098 01E0      		ldi r16,lo8(1)
 383 009a 0E94 0000 		call disk_write
 384               	.LSM42:
 385 009e 1150      		subi r17,lo8(-(-1))
 386               	.L29:
 387 00a0 1230      		cpi r17,lo8(2)
 388 00a2 00F4      		brsh .L30
 389               	.LVL33:
 390               	.L27:
 391               	.LBE2:
 392               	.LSM43:
 393 00a4 8114      		cp r8,__zero_reg__
 394 00a6 9104      		cpc r9,__zero_reg__
 395 00a8 A104      		cpc r10,__zero_reg__
 396 00aa B104      		cpc r11,__zero_reg__
 397 00ac 01F0      		breq .L26
 398               	.LSM44:
 399 00ae BE01      		movw r22,r28
 400 00b0 625D      		subi r22,lo8(-(46))
 401 00b2 7F4F      		sbci r23,hi8(-(46))
 402 00b4 8981      		ldd r24,Y+1
 403 00b6 A501      		movw r20,r10
 404 00b8 9401      		movw r18,r8
 405 00ba 01E0      		ldi r16,lo8(1)
 406 00bc 0E94 0000 		call disk_read
 407 00c0 8823      		tst r24
 408 00c2 01F4      		brne .L28
 409               	.LSM45:
 410 00c4 8AA6      		std Y+42,r8
 411 00c6 9BA6      		std Y+43,r9
 412 00c8 ACA6      		std Y+44,r10
 413 00ca BDA6      		std Y+45,r11
 414 00cc 00C0      		rjmp .L31
 415               	.L28:
 416 00ce 81E0      		ldi r24,lo8(1)
 417 00d0 00C0      		rjmp .L31
 418               	.LVL34:
 419               	.L26:
 420 00d2 80E0      		ldi r24,lo8(0)
 421               	.LVL35:
 422               	.L31:
 423               	/* epilogue start */
 424               	.LSM46:
 425 00d4 DF91      		pop r29
 426 00d6 CF91      		pop r28
 427               	.LVL36:
 428 00d8 1F91      		pop r17
 429               	.LVL37:
 430 00da 0F91      		pop r16
 431 00dc FF90      		pop r15
 432 00de EF90      		pop r14
 433 00e0 DF90      		pop r13
 434 00e2 CF90      		pop r12
 435               	.LVL38:
 436 00e4 BF90      		pop r11
 437 00e6 AF90      		pop r10
 438 00e8 9F90      		pop r9
 439 00ea 8F90      		pop r8
 440               	.LVL39:
 441 00ec 7F90      		pop r7
 442 00ee 6F90      		pop r6
 443 00f0 0895      		ret
 444               	.LFE140:
 446               		.section	.text.put_fat,"ax",@progbits
 447               	.global	put_fat
 449               	put_fat:
 450               	.LFB144:
 451               	.LSM47:
 452               	.LVL40:
 453 0000 8F92      		push r8
 454 0002 9F92      		push r9
 455 0004 AF92      		push r10
 456 0006 BF92      		push r11
 457 0008 CF92      		push r12
 458 000a DF92      		push r13
 459 000c EF92      		push r14
 460 000e FF92      		push r15
 461 0010 0F93      		push r16
 462               	.LVL41:
 463 0012 1F93      		push r17
 464 0014 CF93      		push r28
 465 0016 DF93      		push r29
 466               	/* prologue: function */
 467               	/* frame size = 0 */
 468 0018 EC01      		movw r28,r24
 469 001a 6A01      		movw r12,r20
 470 001c 7B01      		movw r14,r22
 471 001e 4801      		movw r8,r16
 472 0020 5901      		movw r10,r18
 473               	.LVL42:
 474               	.LSM48:
 475 0022 4230      		cpi r20,lo8(2)
 476 0024 5105      		cpc r21,__zero_reg__
 477 0026 6105      		cpc r22,__zero_reg__
 478 0028 7105      		cpc r23,__zero_reg__
 479               	.LVL43:
 480 002a 00F4      		brsh .+2
 481 002c 00C0      		rjmp .L34
 482               	.LVL44:
 483 002e 8E89      		ldd r24,Y+22
 484 0030 9F89      		ldd r25,Y+23
 485 0032 A88D      		ldd r26,Y+24
 486 0034 B98D      		ldd r27,Y+25
 487 0036 4817      		cp r20,r24
 488 0038 5907      		cpc r21,r25
 489 003a 6A07      		cpc r22,r26
 490 003c 7B07      		cpc r23,r27
 491 003e 00F0      		brlo .+2
 492 0040 00C0      		rjmp .L34
 493               	.LSM49:
 494 0042 8881      		ld r24,Y
 495 0044 8230      		cpi r24,lo8(2)
 496 0046 01F4      		brne .+2
 497 0048 00C0      		rjmp .L37
 498 004a 8330      		cpi r24,lo8(3)
 499 004c 01F4      		brne .+2
 500 004e 00C0      		rjmp .L38
 501 0050 8130      		cpi r24,lo8(1)
 502 0052 01F0      		breq .L36
 503 0054 22E0      		ldi r18,lo8(2)
 504               	.LVL45:
 505 0056 00C0      		rjmp .L39
 506               	.LVL46:
 507               	.L36:
 508               	.LSM50:
 509 0058 8A01      		movw r16,r20
 510               	.LVL47:
 511 005a 1695      		lsr r17
 512 005c 0795      		ror r16
 513               	.LVL48:
 514 005e 040F      		add r16,r20
 515 0060 151F      		adc r17,r21
 516               	.LSM51:
 517 0062 A801      		movw r20,r16
 518               	.LVL49:
 519 0064 452F      		mov r20,r21
 520 0066 5527      		clr r21
 521 0068 4695      		lsr r20
 522 006a 60E0      		ldi r22,lo8(0)
 523 006c 70E0      		ldi r23,hi8(0)
 524 006e 8E8D      		ldd r24,Y+30
 525 0070 9F8D      		ldd r25,Y+31
 526 0072 A8A1      		ldd r26,Y+32
 527 0074 B9A1      		ldd r27,Y+33
 528 0076 480F      		add r20,r24
 529 0078 591F      		adc r21,r25
 530 007a 6A1F      		adc r22,r26
 531 007c 7B1F      		adc r23,r27
 532 007e CE01      		movw r24,r28
 533 0080 0E94 0000 		call move_window
 534 0084 282F      		mov r18,r24
 535               	.LVL50:
 536               	.LSM52:
 537 0086 8823      		tst r24
 538 0088 01F0      		breq .+2
 539 008a 00C0      		rjmp .L39
 540               	.LVL51:
 541               	.LSM53:
 542 008c D801      		movw r26,r16
 543 008e B170      		andi r27,hi8(511)
 544               	.LSM54:
 545 0090 81E0      		ldi r24,lo8(1)
 546 0092 E82E      		mov r14,r24
 547 0094 F12C      		mov r15,__zero_reg__
 548               	.LVL52:
 549 0096 EC20      		and r14,r12
 550 0098 FD20      		and r15,r13
 551 009a E114      		cp r14,__zero_reg__
 552 009c F104      		cpc r15,__zero_reg__
 553 009e 01F0      		breq .L40
 554 00a0 FE01      		movw r30,r28
 555 00a2 EA0F      		add r30,r26
 556 00a4 FB1F      		adc r31,r27
 557 00a6 86A5      		ldd r24,Z+46
 558 00a8 8F70      		andi r24,lo8(15)
 559 00aa 982D      		mov r25,r8
 560               	.LVL53:
 561 00ac 9295      		swap r25
 562 00ae 907F      		andi r25,lo8(-16)
 563 00b0 982B      		or r25,r24
 564 00b2 00C0      		rjmp .L41
 565               	.LVL54:
 566               	.L40:
 567 00b4 982D      		mov r25,r8
 568               	.L41:
 569 00b6 AC0F      		add r26,r28
 570 00b8 BD1F      		adc r27,r29
 571 00ba 9E96      		adiw r26,46
 572 00bc 9C93      		st X,r25
 573               	.LSM55:
 574 00be 0F5F      		subi r16,lo8(-(1))
 575 00c0 1F4F      		sbci r17,hi8(-(1))
 576               	.LVL55:
 577               	.LSM56:
 578 00c2 81E0      		ldi r24,lo8(1)
 579 00c4 8C83      		std Y+4,r24
 580               	.LSM57:
 581 00c6 A801      		movw r20,r16
 582 00c8 452F      		mov r20,r21
 583 00ca 5527      		clr r21
 584 00cc 4695      		lsr r20
 585 00ce 60E0      		ldi r22,lo8(0)
 586 00d0 70E0      		ldi r23,hi8(0)
 587 00d2 8E8D      		ldd r24,Y+30
 588 00d4 9F8D      		ldd r25,Y+31
 589 00d6 A8A1      		ldd r26,Y+32
 590 00d8 B9A1      		ldd r27,Y+33
 591 00da 480F      		add r20,r24
 592 00dc 591F      		adc r21,r25
 593 00de 6A1F      		adc r22,r26
 594 00e0 7B1F      		adc r23,r27
 595 00e2 CE01      		movw r24,r28
 596 00e4 0E94 0000 		call move_window
 597               	.LVL56:
 598 00e8 282F      		mov r18,r24
 599               	.LVL57:
 600               	.LSM58:
 601 00ea 8823      		tst r24
 602 00ec 01F0      		breq .+2
 603 00ee 00C0      		rjmp .L39
 604               	.LVL58:
 605               	.LSM59:
 606 00f0 A801      		movw r20,r16
 607 00f2 5170      		andi r21,hi8(511)
 608               	.LSM60:
 609 00f4 EF28      		or r14,r15
 610 00f6 01F0      		breq .L42
 611 00f8 E4E0      		ldi r30,4
 612 00fa B694      	1:	lsr r11
 613 00fc A794      		ror r10
 614 00fe 9794      		ror r9
 615 0100 8794      		ror r8
 616 0102 EA95      		dec r30
 617 0104 01F4      		brne 1b
 618 0106 682D      		mov r22,r8
 619 0108 00C0      		rjmp .L43
 620               	.L42:
 621 010a FE01      		movw r30,r28
 622 010c E40F      		add r30,r20
 623 010e F51F      		adc r31,r21
 624 0110 66A5      		ldd r22,Z+46
 625 0112 607F      		andi r22,lo8(-16)
 626 0114 BB27      		clr r27
 627 0116 AB2D      		mov r26,r11
 628 0118 9A2D      		mov r25,r10
 629 011a 892D      		mov r24,r9
 630               	.LVL59:
 631 011c 8F70      		andi r24,lo8(15)
 632 011e 682B      		or r22,r24
 633               	.LVL60:
 634               	.L43:
 635 0120 4C0F      		add r20,r28
 636 0122 5D1F      		adc r21,r29
 637 0124 FA01      		movw r30,r20
 638 0126 66A7      		std Z+46,r22
 639 0128 00C0      		rjmp .L39
 640               	.LVL61:
 641               	.L37:
 642               	.LSM61:
 643 012a 7727      		clr r23
 644 012c 6F2D      		mov r22,r15
 645 012e 5E2D      		mov r21,r14
 646 0130 4D2D      		mov r20,r13
 647               	.LVL62:
 648 0132 8E8D      		ldd r24,Y+30
 649 0134 9F8D      		ldd r25,Y+31
 650 0136 A8A1      		ldd r26,Y+32
 651 0138 B9A1      		ldd r27,Y+33
 652 013a 480F      		add r20,r24
 653 013c 591F      		adc r21,r25
 654 013e 6A1F      		adc r22,r26
 655 0140 7B1F      		adc r23,r27
 656 0142 CE01      		movw r24,r28
 657 0144 0E94 0000 		call move_window
 658 0148 282F      		mov r18,r24
 659               	.LVL63:
 660               	.LSM62:
 661 014a 8823      		tst r24
 662 014c 01F0      		breq .+2
 663 014e 00C0      		rjmp .L39
 664               	.LVL64:
 665               	.LSM63:
 666 0150 CC0C      		lsl r12
 667 0152 DD1C      		rol r13
 668 0154 EE1C      		rol r14
 669 0156 FF1C      		rol r15
 670 0158 F601      		movw r30,r12
 671               	.LVL65:
 672 015a F170      		andi r31,hi8(511)
 673 015c BE96      		adiw r30,46
 674 015e EC0F      		add r30,r28
 675 0160 FD1F      		adc r31,r29
 676 0162 9182      		std Z+1,r9
 677 0164 8082      		st Z,r8
 678 0166 00C0      		rjmp .L39
 679               	.LVL66:
 680               	.L38:
 681               	.LSM64:
 682 0168 27E0      		ldi r18,7
 683 016a 7695      	1:	lsr r23
 684 016c 6795      		ror r22
 685 016e 5795      		ror r21
 686 0170 4795      		ror r20
 687 0172 2A95      		dec r18
 688 0174 01F4      		brne 1b
 689               	.LVL67:
 690 0176 8E8D      		ldd r24,Y+30
 691 0178 9F8D      		ldd r25,Y+31
 692 017a A8A1      		ldd r26,Y+32
 693 017c B9A1      		ldd r27,Y+33
 694 017e 480F      		add r20,r24
 695 0180 591F      		adc r21,r25
 696 0182 6A1F      		adc r22,r26
 697 0184 7B1F      		adc r23,r27
 698 0186 CE01      		movw r24,r28
 699 0188 0E94 0000 		call move_window
 700 018c 282F      		mov r18,r24
 701               	.LVL68:
 702               	.LSM65:
 703 018e 8823      		tst r24
 704 0190 01F4      		brne .L39
 705               	.LVL69:
 706               	.LSM66:
 707 0192 92E0      		ldi r25,2
 708 0194 CC0C      	1:	lsl r12
 709 0196 DD1C      		rol r13
 710 0198 EE1C      		rol r14
 711 019a FF1C      		rol r15
 712 019c 9A95      		dec r25
 713 019e 01F4      		brne 1b
 714 01a0 F601      		movw r30,r12
 715               	.LVL70:
 716 01a2 F170      		andi r31,hi8(511)
 717 01a4 BE96      		adiw r30,46
 718 01a6 EC0F      		add r30,r28
 719 01a8 FD1F      		adc r31,r29
 720               	.LSM67:
 721 01aa 8081      		ld r24,Z
 722 01ac 9181      		ldd r25,Z+1
 723 01ae A281      		ldd r26,Z+2
 724 01b0 B381      		ldd r27,Z+3
 725               	.LVL71:
 726 01b2 8070      		andi r24,lo8(-268435456)
 727 01b4 9070      		andi r25,hi8(-268435456)
 728 01b6 A070      		andi r26,hlo8(-268435456)
 729 01b8 B07F      		andi r27,hhi8(-268435456)
 730 01ba 8829      		or r24,r8
 731 01bc 9929      		or r25,r9
 732 01be AA29      		or r26,r10
 733 01c0 BB29      		or r27,r11
 734 01c2 8083      		st Z,r24
 735 01c4 9183      		std Z+1,r25
 736 01c6 A283      		std Z+2,r26
 737 01c8 B383      		std Z+3,r27
 738               	.LVL72:
 739               	.L39:
 740               	.LSM68:
 741 01ca 81E0      		ldi r24,lo8(1)
 742 01cc 8C83      		std Y+4,r24
 743 01ce 00C0      		rjmp .L44
 744               	.LVL73:
 745               	.L34:
 746 01d0 22E0      		ldi r18,lo8(2)
 747               	.LVL74:
 748               	.L44:
 749               	.LSM69:
 750 01d2 822F      		mov r24,r18
 751               	/* epilogue start */
 752 01d4 DF91      		pop r29
 753 01d6 CF91      		pop r28
 754               	.LVL75:
 755 01d8 1F91      		pop r17
 756 01da 0F91      		pop r16
 757               	.LVL76:
 758 01dc FF90      		pop r15
 759 01de EF90      		pop r14
 760 01e0 DF90      		pop r13
 761 01e2 CF90      		pop r12
 762 01e4 BF90      		pop r11
 763 01e6 AF90      		pop r10
 764 01e8 9F90      		pop r9
 765 01ea 8F90      		pop r8
 766               	.LVL77:
 767 01ec 0895      		ret
 768               	.LFE144:
 770               		.section	.text.get_fat,"ax",@progbits
 771               	.global	get_fat
 773               	get_fat:
 774               	.LFB143:
 775               	.LSM70:
 776               	.LVL78:
 777 0000 BF92      		push r11
 778 0002 CF92      		push r12
 779 0004 DF92      		push r13
 780 0006 EF92      		push r14
 781 0008 FF92      		push r15
 782 000a 0F93      		push r16
 783 000c 1F93      		push r17
 784 000e CF93      		push r28
 785 0010 DF93      		push r29
 786               	/* prologue: function */
 787               	/* frame size = 0 */
 788 0012 6C01      		movw r12,r24
 789 0014 7A01      		movw r14,r20
 790 0016 8B01      		movw r16,r22
 791               	.LSM71:
 792 0018 4230      		cpi r20,lo8(2)
 793 001a 5105      		cpc r21,__zero_reg__
 794 001c 6105      		cpc r22,__zero_reg__
 795 001e 7105      		cpc r23,__zero_reg__
 796               	.LVL79:
 797 0020 00F4      		brsh .+2
 798 0022 00C0      		rjmp .L47
 799 0024 F601      		movw r30,r12
 800 0026 8689      		ldd r24,Z+22
 801 0028 9789      		ldd r25,Z+23
 802 002a A08D      		ldd r26,Z+24
 803 002c B18D      		ldd r27,Z+25
 804 002e 4817      		cp r20,r24
 805 0030 5907      		cpc r21,r25
 806 0032 6A07      		cpc r22,r26
 807 0034 7B07      		cpc r23,r27
 808 0036 00F0      		brlo .+2
 809 0038 00C0      		rjmp .L47
 810               	.LSM72:
 811 003a 8081      		ld r24,Z
 812 003c 8230      		cpi r24,lo8(2)
 813 003e 01F4      		brne .+2
 814 0040 00C0      		rjmp .L50
 815 0042 8330      		cpi r24,lo8(3)
 816 0044 01F4      		brne .+2
 817 0046 00C0      		rjmp .L51
 818 0048 8130      		cpi r24,lo8(1)
 819 004a 01F0      		breq .+2
 820 004c 00C0      		rjmp .L48
 821               	.LSM73:
 822 004e EA01      		movw r28,r20
 823               	.LVL80:
 824 0050 D695      		lsr r29
 825 0052 C795      		ror r28
 826               	.LVL81:
 827 0054 C40F      		add r28,r20
 828 0056 D51F      		adc r29,r21
 829               	.LSM74:
 830 0058 AE01      		movw r20,r28
 831               	.LVL82:
 832 005a 452F      		mov r20,r21
 833 005c 5527      		clr r21
 834 005e 4695      		lsr r20
 835 0060 60E0      		ldi r22,lo8(0)
 836 0062 70E0      		ldi r23,hi8(0)
 837 0064 F601      		movw r30,r12
 838 0066 868D      		ldd r24,Z+30
 839 0068 978D      		ldd r25,Z+31
 840 006a A0A1      		ldd r26,Z+32
 841 006c B1A1      		ldd r27,Z+33
 842 006e 480F      		add r20,r24
 843 0070 591F      		adc r21,r25
 844 0072 6A1F      		adc r22,r26
 845 0074 7B1F      		adc r23,r27
 846 0076 C601      		movw r24,r12
 847 0078 0E94 0000 		call move_window
 848 007c 8823      		tst r24
 849 007e 01F0      		breq .+2
 850 0080 00C0      		rjmp .L48
 851               	.LSM75:
 852 0082 FE01      		movw r30,r28
 853 0084 F170      		andi r31,hi8(511)
 854 0086 EC0D      		add r30,r12
 855 0088 FD1D      		adc r31,r13
 856 008a B6A4      		ldd r11,Z+46
 857 008c 2196      		adiw r28,1
 858               	.LVL83:
 859               	.LSM76:
 860 008e AE01      		movw r20,r28
 861 0090 452F      		mov r20,r21
 862 0092 5527      		clr r21
 863 0094 4695      		lsr r20
 864 0096 60E0      		ldi r22,lo8(0)
 865 0098 70E0      		ldi r23,hi8(0)
 866 009a F601      		movw r30,r12
 867 009c 868D      		ldd r24,Z+30
 868 009e 978D      		ldd r25,Z+31
 869 00a0 A0A1      		ldd r26,Z+32
 870 00a2 B1A1      		ldd r27,Z+33
 871 00a4 480F      		add r20,r24
 872 00a6 591F      		adc r21,r25
 873 00a8 6A1F      		adc r22,r26
 874 00aa 7B1F      		adc r23,r27
 875 00ac C601      		movw r24,r12
 876 00ae 0E94 0000 		call move_window
 877 00b2 8823      		tst r24
 878 00b4 01F0      		breq .+2
 879 00b6 00C0      		rjmp .L48
 880               	.LSM77:
 881 00b8 6B2D      		mov r22,r11
 882               	.LVL84:
 883 00ba 70E0      		ldi r23,lo8(0)
 884               	.LVL85:
 885               	.LSM78:
 886 00bc D170      		andi r29,hi8(511)
 887 00be CC0D      		add r28,r12
 888 00c0 DD1D      		adc r29,r13
 889 00c2 9EA5      		ldd r25,Y+46
 890 00c4 80E0      		ldi r24,lo8(0)
 891 00c6 682B      		or r22,r24
 892 00c8 792B      		or r23,r25
 893               	.LVL86:
 894               	.LSM79:
 895 00ca C701      		movw r24,r14
 896               	.LVL87:
 897 00cc 8170      		andi r24,lo8(1)
 898 00ce 9070      		andi r25,hi8(1)
 899 00d0 892B      		or r24,r25
 900 00d2 01F0      		breq .L52
 901 00d4 B4E0      		ldi r27,4
 902 00d6 7695      	1:	lsr r23
 903 00d8 6795      		ror r22
 904 00da BA95      		dec r27
 905 00dc 01F4      		brne 1b
 906 00de 9B01      		movw r18,r22
 907 00e0 00C0      		rjmp .L55
 908               	.L52:
 909 00e2 9B01      		movw r18,r22
 910 00e4 40E0      		ldi r20,lo8(0)
 911 00e6 50E0      		ldi r21,hi8(0)
 912 00e8 3F70      		andi r19,hi8(4095)
 913 00ea 4070      		andi r20,hlo8(4095)
 914 00ec 5070      		andi r21,hhi8(4095)
 915 00ee 00C0      		rjmp .L53
 916               	.LVL88:
 917               	.L50:
 918               	.LSM80:
 919 00f0 452F      		mov r20,r21
 920 00f2 562F      		mov r21,r22
 921 00f4 672F      		mov r22,r23
 922 00f6 7727      		clr r23
 923               	.LVL89:
 924 00f8 F601      		movw r30,r12
 925 00fa 868D      		ldd r24,Z+30
 926 00fc 978D      		ldd r25,Z+31
 927 00fe A0A1      		ldd r26,Z+32
 928 0100 B1A1      		ldd r27,Z+33
 929 0102 480F      		add r20,r24
 930 0104 591F      		adc r21,r25
 931 0106 6A1F      		adc r22,r26
 932 0108 7B1F      		adc r23,r27
 933 010a C601      		movw r24,r12
 934 010c 0E94 0000 		call move_window
 935 0110 8823      		tst r24
 936 0112 01F4      		brne .L48
 937               	.LSM81:
 938 0114 EE0C      		lsl r14
 939 0116 FF1C      		rol r15
 940 0118 001F      		rol r16
 941 011a 111F      		rol r17
 942 011c F701      		movw r30,r14
 943               	.LVL90:
 944 011e F170      		andi r31,hi8(511)
 945 0120 EC0D      		add r30,r12
 946 0122 FD1D      		adc r31,r13
 947 0124 86A5      		ldd r24,Z+46
 948 0126 97A5      		ldd r25,Z+47
 949 0128 9C01      		movw r18,r24
 950               	.LVL91:
 951               	.L55:
 952 012a 40E0      		ldi r20,lo8(0)
 953 012c 50E0      		ldi r21,hi8(0)
 954 012e 00C0      		rjmp .L53
 955               	.LVL92:
 956               	.L51:
 957               	.LSM82:
 958 0130 E7E0      		ldi r30,7
 959 0132 7695      	1:	lsr r23
 960 0134 6795      		ror r22
 961 0136 5795      		ror r21
 962 0138 4795      		ror r20
 963 013a EA95      		dec r30
 964 013c 01F4      		brne 1b
 965               	.LVL93:
 966 013e F601      		movw r30,r12
 967 0140 868D      		ldd r24,Z+30
 968 0142 978D      		ldd r25,Z+31
 969 0144 A0A1      		ldd r26,Z+32
 970 0146 B1A1      		ldd r27,Z+33
 971 0148 480F      		add r20,r24
 972 014a 591F      		adc r21,r25
 973 014c 6A1F      		adc r22,r26
 974 014e 7B1F      		adc r23,r27
 975 0150 C601      		movw r24,r12
 976 0152 0E94 0000 		call move_window
 977 0156 8823      		tst r24
 978 0158 01F4      		brne .L48
 979               	.LSM83:
 980 015a 32E0      		ldi r19,2
 981 015c EE0C      	1:	lsl r14
 982 015e FF1C      		rol r15
 983 0160 001F      		rol r16
 984 0162 111F      		rol r17
 985 0164 3A95      		dec r19
 986 0166 01F4      		brne 1b
 987 0168 F701      		movw r30,r14
 988               	.LVL94:
 989 016a F170      		andi r31,hi8(511)
 990 016c EC0D      		add r30,r12
 991 016e FD1D      		adc r31,r13
 992 0170 26A5      		ldd r18,Z+46
 993 0172 37A5      		ldd r19,Z+47
 994 0174 40A9      		ldd r20,Z+48
 995 0176 51A9      		ldd r21,Z+49
 996 0178 5F70      		andi r21,hhi8(268435455)
 997 017a 00C0      		rjmp .L53
 998               	.LVL95:
 999               	.L47:
 1000 017c 21E0      		ldi r18,lo8(1)
 1001 017e 30E0      		ldi r19,hi8(1)
 1002 0180 40E0      		ldi r20,hlo8(1)
 1003 0182 50E0      		ldi r21,hhi8(1)
 1004 0184 00C0      		rjmp .L53
 1005               	.LVL96:
 1006               	.L48:
 1007 0186 2FEF      		ldi r18,lo8(-1)
 1008 0188 3FEF      		ldi r19,hi8(-1)
 1009 018a 4FEF      		ldi r20,hlo8(-1)
 1010 018c 5FEF      		ldi r21,hhi8(-1)
 1011               	.LVL97:
 1012               	.L53:
 1013               	.LSM84:
 1014 018e B901      		movw r22,r18
 1015               	.LVL98:
 1016 0190 CA01      		movw r24,r20
 1017               	/* epilogue start */
 1018 0192 DF91      		pop r29
 1019 0194 CF91      		pop r28
 1020               	.LVL99:
 1021 0196 1F91      		pop r17
 1022 0198 0F91      		pop r16
 1023 019a FF90      		pop r15
 1024 019c EF90      		pop r14
 1025               	.LVL100:
 1026 019e DF90      		pop r13
 1027 01a0 CF90      		pop r12
 1028               	.LVL101:
 1029 01a2 BF90      		pop r11
 1030 01a4 0895      		ret
 1031               	.LFE143:
 1033               		.section	.text.create_chain,"ax",@progbits
 1035               	create_chain:
 1036               	.LFB146:
 1037               	.LSM85:
 1038               	.LVL102:
 1039 0000 4F92      		push r4
 1040 0002 5F92      		push r5
 1041 0004 6F92      		push r6
 1042 0006 7F92      		push r7
 1043 0008 8F92      		push r8
 1044 000a 9F92      		push r9
 1045 000c AF92      		push r10
 1046 000e BF92      		push r11
 1047 0010 CF92      		push r12
 1048 0012 DF92      		push r13
 1049 0014 EF92      		push r14
 1050 0016 FF92      		push r15
 1051 0018 0F93      		push r16
 1052 001a 1F93      		push r17
 1053 001c CF93      		push r28
 1054 001e DF93      		push r29
 1055               	/* prologue: function */
 1056               	/* frame size = 0 */
 1057 0020 EC01      		movw r28,r24
 1058 0022 2A01      		movw r4,r20
 1059 0024 3B01      		movw r6,r22
 1060               	.LSM86:
 1061 0026 4115      		cp r20,__zero_reg__
 1062 0028 5105      		cpc r21,__zero_reg__
 1063 002a 6105      		cpc r22,__zero_reg__
 1064 002c 7105      		cpc r23,__zero_reg__
 1065 002e 01F4      		brne .L57
 1066               	.LVL103:
 1067               	.LSM87:
 1068 0030 8A84      		ldd r8,Y+10
 1069 0032 9B84      		ldd r9,Y+11
 1070 0034 AC84      		ldd r10,Y+12
 1071 0036 BD84      		ldd r11,Y+13
 1072               	.LVL104:
 1073               	.LSM88:
 1074 0038 8114      		cp r8,__zero_reg__
 1075 003a 9104      		cpc r9,__zero_reg__
 1076 003c A104      		cpc r10,__zero_reg__
 1077 003e B104      		cpc r11,__zero_reg__
 1078 0040 01F0      		breq .L58
 1079 0042 8E89      		ldd r24,Y+22
 1080 0044 9F89      		ldd r25,Y+23
 1081 0046 A88D      		ldd r26,Y+24
 1082 0048 B98D      		ldd r27,Y+25
 1083 004a 8816      		cp r8,r24
 1084 004c 9906      		cpc r9,r25
 1085 004e AA06      		cpc r10,r26
 1086 0050 BB06      		cpc r11,r27
 1087 0052 00F4      		brsh .L58
 1088 0054 00C0      		rjmp .L59
 1089               	.LVL105:
 1090               	.L57:
 1091               	.LSM89:
 1092 0056 0E94 0000 		call get_fat
 1093               	.LVL106:
 1094 005a 9B01      		movw r18,r22
 1095 005c AC01      		movw r20,r24
 1096               	.LVL107:
 1097               	.LSM90:
 1098 005e 6230      		cpi r22,lo8(2)
 1099 0060 7105      		cpc r23,__zero_reg__
 1100 0062 8105      		cpc r24,__zero_reg__
 1101 0064 9105      		cpc r25,__zero_reg__
 1102 0066 00F4      		brsh .+2
 1103 0068 00C0      		rjmp .L71
 1104               	.LVL108:
 1105               	.L60:
 1106               	.LSM91:
 1107 006a 8E89      		ldd r24,Y+22
 1108 006c 9F89      		ldd r25,Y+23
 1109 006e A88D      		ldd r26,Y+24
 1110 0070 B98D      		ldd r27,Y+25
 1111 0072 2817      		cp r18,r24
 1112 0074 3907      		cpc r19,r25
 1113 0076 4A07      		cpc r20,r26
 1114 0078 5B07      		cpc r21,r27
 1115 007a 00F4      		brsh .+2
 1116 007c 00C0      		rjmp .L61
 1117               	.LVL109:
 1118 007e 5301      		movw r10,r6
 1119 0080 4201      		movw r8,r4
 1120               	.LVL110:
 1121 0082 00C0      		rjmp .L59
 1122               	.LVL111:
 1123               	.L58:
 1124 0084 41E0      		ldi r20,lo8(1)
 1125 0086 842E      		mov r8,r20
 1126 0088 912C      		mov r9,__zero_reg__
 1127 008a A12C      		mov r10,__zero_reg__
 1128 008c B12C      		mov r11,__zero_reg__
 1129               	.LVL112:
 1130               	.L59:
 1131 008e 7501      		movw r14,r10
 1132 0090 6401      		movw r12,r8
 1133               	.LVL113:
 1134               	.L65:
 1135               	.LSM92:
 1136 0092 0894      		sec
 1137 0094 C11C      		adc r12,__zero_reg__
 1138 0096 D11C      		adc r13,__zero_reg__
 1139 0098 E11C      		adc r14,__zero_reg__
 1140 009a F11C      		adc r15,__zero_reg__
 1141               	.LSM93:
 1142 009c 8E89      		ldd r24,Y+22
 1143 009e 9F89      		ldd r25,Y+23
 1144 00a0 A88D      		ldd r26,Y+24
 1145 00a2 B98D      		ldd r27,Y+25
 1146 00a4 C816      		cp r12,r24
 1147 00a6 D906      		cpc r13,r25
 1148 00a8 EA06      		cpc r14,r26
 1149 00aa FB06      		cpc r15,r27
 1150 00ac 00F0      		brlo .L62
 1151               	.LSM94:
 1152 00ae 22E0      		ldi r18,lo8(2)
 1153 00b0 8216      		cp r8,r18
 1154 00b2 9104      		cpc r9,__zero_reg__
 1155 00b4 A104      		cpc r10,__zero_reg__
 1156 00b6 B104      		cpc r11,__zero_reg__
 1157               	.LVL114:
 1158 00b8 00F4      		brsh .+2
 1159 00ba 00C0      		rjmp .L63
 1160 00bc 32E0      		ldi r19,lo8(2)
 1161 00be C32E      		mov r12,r19
 1162 00c0 D12C      		mov r13,__zero_reg__
 1163 00c2 E12C      		mov r14,__zero_reg__
 1164 00c4 F12C      		mov r15,__zero_reg__
 1165               	.LVL115:
 1166               	.L62:
 1167               	.LSM95:
 1168 00c6 CE01      		movw r24,r28
 1169 00c8 B701      		movw r22,r14
 1170 00ca A601      		movw r20,r12
 1171 00cc 0E94 0000 		call get_fat
 1172               	.LVL116:
 1173 00d0 9B01      		movw r18,r22
 1174 00d2 AC01      		movw r20,r24
 1175               	.LVL117:
 1176               	.LSM96:
 1177 00d4 6115      		cp r22,__zero_reg__
 1178 00d6 7105      		cpc r23,__zero_reg__
 1179 00d8 8105      		cpc r24,__zero_reg__
 1180 00da 9105      		cpc r25,__zero_reg__
 1181 00dc 01F0      		breq .L64
 1182               	.LVL118:
 1183               	.LSM97:
 1184 00de 2F3F      		cpi r18,lo8(-1)
 1185 00e0 8FEF      		ldi r24,hi8(-1)
 1186 00e2 3807      		cpc r19,r24
 1187 00e4 8FEF      		ldi r24,hlo8(-1)
 1188 00e6 4807      		cpc r20,r24
 1189 00e8 8FEF      		ldi r24,hhi8(-1)
 1190 00ea 5807      		cpc r21,r24
 1191 00ec 01F4      		brne .+2
 1192 00ee 00C0      		rjmp .L61
 1193               	.LVL119:
 1194 00f0 2130      		cpi r18,lo8(1)
 1195 00f2 3105      		cpc r19,__zero_reg__
 1196 00f4 4105      		cpc r20,__zero_reg__
 1197 00f6 5105      		cpc r21,__zero_reg__
 1198 00f8 01F4      		brne .+2
 1199 00fa 00C0      		rjmp .L61
 1200               	.LSM98:
 1201 00fc C814      		cp r12,r8
 1202 00fe D904      		cpc r13,r9
 1203 0100 EA04      		cpc r14,r10
 1204 0102 FB04      		cpc r15,r11
 1205 0104 01F4      		brne .L65
 1206 0106 00C0      		rjmp .L63
 1207               	.LVL120:
 1208               	.L64:
 1209 0108 BC2C      		mov r11,r12
 1210 010a AD2C      		mov r10,r13
 1211               	.LVL121:
 1212 010c 9E2C      		mov r9,r14
 1213               	.LVL122:
 1214 010e 8F2C      		mov r8,r15
 1215               	.LVL123:
 1216               	.LSM99:
 1217 0110 CE01      		movw r24,r28
 1218 0112 A601      		movw r20,r12
 1219               	.LVL124:
 1220 0114 B701      		movw r22,r14
 1221               	.LVL125:
 1222 0116 0FEF      		ldi r16,lo8(268435455)
 1223 0118 1FEF      		ldi r17,hi8(268435455)
 1224 011a 2FEF      		ldi r18,hlo8(268435455)
 1225 011c 3FE0      		ldi r19,hhi8(268435455)
 1226 011e 0E94 0000 		call put_fat
 1227               	.LVL126:
 1228               	.LSM100:
 1229 0122 8823      		tst r24
 1230               	.LVL127:
 1231 0124 01F4      		brne .L66
 1232               	.LVL128:
 1233 0126 4114      		cp r4,__zero_reg__
 1234 0128 5104      		cpc r5,__zero_reg__
 1235 012a 6104      		cpc r6,__zero_reg__
 1236 012c 7104      		cpc r7,__zero_reg__
 1237 012e 01F0      		breq .L67
 1238               	.LSM101:
 1239 0130 CE01      		movw r24,r28
 1240               	.LVL129:
 1241 0132 B301      		movw r22,r6
 1242 0134 A201      		movw r20,r4
 1243 0136 8601      		movw r16,r12
 1244 0138 9701      		movw r18,r14
 1245 013a 0E94 0000 		call put_fat
 1246               	.LSM102:
 1247 013e 8823      		tst r24
 1248               	.LVL130:
 1249 0140 01F4      		brne .L66
 1250               	.L67:
 1251               	.LSM103:
 1252 0142 BA86      		std Y+10,r11
 1253 0144 AB86      		std Y+11,r10
 1254 0146 9C86      		std Y+12,r9
 1255 0148 8D86      		std Y+13,r8
 1256               	.LSM104:
 1257 014a 8E85      		ldd r24,Y+14
 1258 014c 9F85      		ldd r25,Y+15
 1259 014e A889      		ldd r26,Y+16
 1260 0150 B989      		ldd r27,Y+17
 1261               	.LVL131:
 1262 0152 8F3F      		cpi r24,lo8(-1)
 1263 0154 2FEF      		ldi r18,hi8(-1)
 1264 0156 9207      		cpc r25,r18
 1265 0158 2FEF      		ldi r18,hlo8(-1)
 1266 015a A207      		cpc r26,r18
 1267 015c 2FEF      		ldi r18,hhi8(-1)
 1268 015e B207      		cpc r27,r18
 1269 0160 01F0      		breq .L72
 1270               	.L68:
 1271               	.LSM105:
 1272 0162 0197      		sbiw r24,1
 1273 0164 A109      		sbc r26,__zero_reg__
 1274 0166 B109      		sbc r27,__zero_reg__
 1275 0168 8E87      		std Y+14,r24
 1276 016a 9F87      		std Y+15,r25
 1277 016c A88B      		std Y+16,r26
 1278 016e B98B      		std Y+17,r27
 1279               	.LSM106:
 1280 0170 81E0      		ldi r24,lo8(1)
 1281 0172 8D83      		std Y+5,r24
 1282               	.L72:
 1283 0174 A701      		movw r20,r14
 1284 0176 9601      		movw r18,r12
 1285               	.LVL132:
 1286 0178 00C0      		rjmp .L61
 1287               	.LVL133:
 1288               	.L66:
 1289               	.LSM107:
 1290 017a 8130      		cpi r24,lo8(1)
 1291 017c 01F0      		breq .L69
 1292               	.LVL134:
 1293               	.L71:
 1294 017e 21E0      		ldi r18,lo8(1)
 1295 0180 30E0      		ldi r19,hi8(1)
 1296 0182 40E0      		ldi r20,hlo8(1)
 1297 0184 50E0      		ldi r21,hhi8(1)
 1298               	.LVL135:
 1299 0186 00C0      		rjmp .L61
 1300               	.LVL136:
 1301               	.L69:
 1302 0188 2FEF      		ldi r18,lo8(-1)
 1303 018a 3FEF      		ldi r19,hi8(-1)
 1304 018c 4FEF      		ldi r20,hlo8(-1)
 1305 018e 5FEF      		ldi r21,hhi8(-1)
 1306               	.LVL137:
 1307 0190 00C0      		rjmp .L61
 1308               	.LVL138:
 1309               	.L63:
 1310 0192 20E0      		ldi r18,lo8(0)
 1311 0194 30E0      		ldi r19,hi8(0)
 1312 0196 40E0      		ldi r20,hlo8(0)
 1313 0198 50E0      		ldi r21,hhi8(0)
 1314               	.LVL139:
 1315               	.L61:
 1316               	.LSM108:
 1317 019a B901      		movw r22,r18
 1318               	.LVL140:
 1319 019c CA01      		movw r24,r20
 1320               	.LVL141:
 1321               	/* epilogue start */
 1322 019e DF91      		pop r29
 1323 01a0 CF91      		pop r28
 1324               	.LVL142:
 1325 01a2 1F91      		pop r17
 1326 01a4 0F91      		pop r16
 1327 01a6 FF90      		pop r15
 1328 01a8 EF90      		pop r14
 1329 01aa DF90      		pop r13
 1330 01ac CF90      		pop r12
 1331 01ae BF90      		pop r11
 1332               	.LVL143:
 1333 01b0 AF90      		pop r10
 1334               	.LVL144:
 1335 01b2 9F90      		pop r9
 1336               	.LVL145:
 1337 01b4 8F90      		pop r8
 1338               	.LVL146:
 1339 01b6 7F90      		pop r7
 1340 01b8 6F90      		pop r6
 1341 01ba 5F90      		pop r5
 1342 01bc 4F90      		pop r4
 1343               	.LVL147:
 1344 01be 0895      		ret
 1345               	.LFE146:
 1347               		.section	.text.f_lseek,"ax",@progbits
 1348               	.global	f_lseek
 1350               	f_lseek:
 1351               	.LFB162:
 1352               	.LSM109:
 1353               	.LVL148:
 1354 0000 2F92      		push r2
 1355 0002 3F92      		push r3
 1356 0004 4F92      		push r4
 1357 0006 5F92      		push r5
 1358 0008 6F92      		push r6
 1359 000a 7F92      		push r7
 1360 000c 8F92      		push r8
 1361 000e 9F92      		push r9
 1362 0010 AF92      		push r10
 1363 0012 BF92      		push r11
 1364 0014 CF92      		push r12
 1365 0016 DF92      		push r13
 1366 0018 EF92      		push r14
 1367 001a FF92      		push r15
 1368 001c 0F93      		push r16
 1369 001e 1F93      		push r17
 1370 0020 DF93      		push r29
 1371 0022 CF93      		push r28
 1372 0024 00D0      		rcall .
 1373 0026 00D0      		rcall .
 1374 0028 0F92      		push __tmp_reg__
 1375 002a CDB7      		in r28,__SP_L__
 1376 002c DEB7      		in r29,__SP_H__
 1377               	/* prologue: function */
 1378               	/* frame size = 5 */
 1379 002e 9D83      		std Y+5,r25
 1380 0030 8C83      		std Y+4,r24
 1381 0032 3A01      		movw r6,r20
 1382 0034 4B01      		movw r8,r22
 1383               	.LSM110:
 1384 0036 DC01      		movw r26,r24
 1385 0038 1296      		adiw r26,2
 1386 003a 6D91      		ld r22,X+
 1387 003c 7C91      		ld r23,X
 1388 003e 1397      		sbiw r26,2+1
 1389 0040 8D91      		ld r24,X+
 1390 0042 9C91      		ld r25,X
 1391               	.LVL149:
 1392 0044 0E94 0000 		call validate
 1393               	.LVL150:
 1394 0048 8B83      		std Y+3,r24
 1395               	.LVL151:
 1396               	.LSM111:
 1397 004a 8823      		tst r24
 1398 004c 01F0      		breq .+2
 1399 004e 00C0      		rjmp .L74
 1400               	.LSM112:
 1401 0050 EC81      		ldd r30,Y+4
 1402 0052 FD81      		ldd r31,Y+5
 1403 0054 8481      		ldd r24,Z+4
 1404 0056 87FD      		sbrc r24,7
 1405 0058 00C0      		rjmp .L97
 1406               	.L75:
 1407               	.LBB3:
 1408               	.LSM113:
 1409 005a AC81      		ldd r26,Y+4
 1410 005c BD81      		ldd r27,Y+5
 1411 005e 1A96      		adiw r26,10
 1412 0060 AD90      		ld r10,X+
 1413 0062 BD90      		ld r11,X+
 1414 0064 CD90      		ld r12,X+
 1415 0066 DC90      		ld r13,X
 1416 0068 1D97      		sbiw r26,10+3
 1417               	.LVL152:
 1418 006a A614      		cp r10,r6
 1419 006c B704      		cpc r11,r7
 1420 006e C804      		cpc r12,r8
 1421 0070 D904      		cpc r13,r9
 1422 0072 00F4      		brsh .L76
 1423 0074 81FF      		sbrs r24,1
 1424 0076 00C0      		rjmp .L77
 1425               	.L76:
 1426 0078 6401      		movw r12,r8
 1427 007a 5301      		movw r10,r6
 1428               	.L77:
 1429               	.LSM114:
 1430 007c EC81      		ldd r30,Y+4
 1431 007e FD81      		ldd r31,Y+5
 1432 0080 2681      		ldd r18,Z+6
 1433 0082 3781      		ldd r19,Z+7
 1434 0084 4085      		ldd r20,Z+8
 1435 0086 5185      		ldd r21,Z+9
 1436               	.LVL153:
 1437               	.LSM115:
 1438 0088 1682      		std Z+6,__zero_reg__
 1439 008a 1782      		std Z+7,__zero_reg__
 1440 008c 1086      		std Z+8,__zero_reg__
 1441 008e 1186      		std Z+9,__zero_reg__
 1442               	.LSM116:
 1443 0090 A114      		cp r10,__zero_reg__
 1444 0092 B104      		cpc r11,__zero_reg__
 1445 0094 C104      		cpc r12,__zero_reg__
 1446 0096 D104      		cpc r13,__zero_reg__
 1447 0098 01F4      		brne .+2
 1448 009a 00C0      		rjmp .L78
 1449               	.LSM117:
 1450 009c 0190      		ld __tmp_reg__,Z+
 1451 009e F081      		ld r31,Z
 1452 00a0 E02D      		mov r30,__tmp_reg__
 1453 00a2 FA83      		std Y+2,r31
 1454 00a4 E983      		std Y+1,r30
 1455 00a6 8281      		ldd r24,Z+2
 1456 00a8 682E      		mov r6,r24
 1457               	.LVL154:
 1458 00aa 7724      		clr r7
 1459               	.LVL155:
 1460 00ac 8824      		clr r8
 1461 00ae 9924      		clr r9
 1462               	.LVL156:
 1463 00b0 F9E0      		ldi r31,9
 1464 00b2 660C      	1:	lsl r6
 1465 00b4 771C      		rol r7
 1466 00b6 881C      		rol r8
 1467 00b8 991C      		rol r9
 1468 00ba FA95      		dec r31
 1469 00bc 01F4      		brne 1b
 1470               	.LVL157:
 1471               	.LSM118:
 1472 00be 2115      		cp r18,__zero_reg__
 1473 00c0 3105      		cpc r19,__zero_reg__
 1474 00c2 4105      		cpc r20,__zero_reg__
 1475 00c4 5105      		cpc r21,__zero_reg__
 1476 00c6 01F0      		breq .L79
 1477 00c8 1901      		movw r2,r18
 1478 00ca 2A01      		movw r4,r20
 1479 00cc 0894      		sec
 1480 00ce 2108      		sbc r2,__zero_reg__
 1481 00d0 3108      		sbc r3,__zero_reg__
 1482 00d2 4108      		sbc r4,__zero_reg__
 1483 00d4 5108      		sbc r5,__zero_reg__
 1484 00d6 C601      		movw r24,r12
 1485 00d8 B501      		movw r22,r10
 1486 00da 6150      		subi r22,lo8(-(-1))
 1487 00dc 7040      		sbci r23,hi8(-(-1))
 1488 00de 8040      		sbci r24,hlo8(-(-1))
 1489 00e0 9040      		sbci r25,hhi8(-(-1))
 1490 00e2 A401      		movw r20,r8
 1491 00e4 9301      		movw r18,r6
 1492               	.LVL158:
 1493 00e6 0E94 0000 		call __udivmodsi4
 1494 00ea 7901      		movw r14,r18
 1495 00ec 8A01      		movw r16,r20
 1496 00ee C201      		movw r24,r4
 1497 00f0 B101      		movw r22,r2
 1498 00f2 A401      		movw r20,r8
 1499 00f4 9301      		movw r18,r6
 1500 00f6 0E94 0000 		call __udivmodsi4
 1501 00fa E216      		cp r14,r18
 1502 00fc F306      		cpc r15,r19
 1503 00fe 0407      		cpc r16,r20
 1504 0100 1507      		cpc r17,r21
 1505 0102 00F0      		brlo .L79
 1506               	.LSM119:
 1507 0104 8827      		clr r24
 1508 0106 9927      		clr r25
 1509 0108 DC01      		movw r26,r24
 1510 010a 8619      		sub r24,r6
 1511 010c 9709      		sbc r25,r7
 1512 010e A809      		sbc r26,r8
 1513 0110 B909      		sbc r27,r9
 1514 0112 8221      		and r24,r2
 1515 0114 9321      		and r25,r3
 1516 0116 A421      		and r26,r4
 1517 0118 B521      		and r27,r5
 1518 011a EC81      		ldd r30,Y+4
 1519 011c FD81      		ldd r31,Y+5
 1520 011e 8683      		std Z+6,r24
 1521 0120 9783      		std Z+7,r25
 1522 0122 A087      		std Z+8,r26
 1523 0124 B187      		std Z+9,r27
 1524               	.LSM120:
 1525 0126 A81A      		sub r10,r24
 1526 0128 B90A      		sbc r11,r25
 1527 012a CA0A      		sbc r12,r26
 1528 012c DB0A      		sbc r13,r27
 1529               	.LSM121:
 1530 012e 4289      		ldd r20,Z+18
 1531 0130 5389      		ldd r21,Z+19
 1532 0132 6489      		ldd r22,Z+20
 1533 0134 7589      		ldd r23,Z+21
 1534               	.LVL159:
 1535 0136 00C0      		rjmp .L80
 1536               	.LVL160:
 1537               	.L79:
 1538               	.LSM122:
 1539 0138 AC81      		ldd r26,Y+4
 1540 013a BD81      		ldd r27,Y+5
 1541 013c 1E96      		adiw r26,14
 1542 013e 4D91      		ld r20,X+
 1543 0140 5D91      		ld r21,X+
 1544 0142 6D91      		ld r22,X+
 1545 0144 7C91      		ld r23,X
 1546 0146 5197      		sbiw r26,14+3
 1547               	.LVL161:
 1548               	.LSM123:
 1549 0148 4115      		cp r20,__zero_reg__
 1550 014a 5105      		cpc r21,__zero_reg__
 1551 014c 6105      		cpc r22,__zero_reg__
 1552 014e 7105      		cpc r23,__zero_reg__
 1553 0150 01F4      		brne .L81
 1554               	.LSM124:
 1555 0152 8981      		ldd r24,Y+1
 1556 0154 9A81      		ldd r25,Y+2
 1557 0156 40E0      		ldi r20,lo8(0)
 1558 0158 50E0      		ldi r21,hi8(0)
 1559 015a 60E0      		ldi r22,hlo8(0)
 1560 015c 70E0      		ldi r23,hhi8(0)
 1561               	.LVL162:
 1562 015e 0E94 0000 		call create_chain
 1563               	.LVL163:
 1564 0162 AB01      		movw r20,r22
 1565 0164 BC01      		movw r22,r24
 1566               	.LVL164:
 1567               	.LSM125:
 1568 0166 4130      		cpi r20,lo8(1)
 1569 0168 5105      		cpc r21,__zero_reg__
 1570 016a 6105      		cpc r22,__zero_reg__
 1571 016c 7105      		cpc r23,__zero_reg__
 1572 016e 01F4      		brne .L82
 1573               	.L99:
 1574 0170 EC81      		ldd r30,Y+4
 1575 0172 FD81      		ldd r31,Y+5
 1576 0174 8481      		ldd r24,Z+4
 1577 0176 8068      		ori r24,lo8(-128)
 1578 0178 8483      		std Z+4,r24
 1579               	.LVL165:
 1580               	.L97:
 1581 017a F2E0      		ldi r31,lo8(2)
 1582 017c FB83      		std Y+3,r31
 1583               	.LVL166:
 1584 017e 00C0      		rjmp .L74
 1585               	.LVL167:
 1586               	.L82:
 1587               	.LSM126:
 1588 0180 4F3F      		cpi r20,lo8(-1)
 1589 0182 8FEF      		ldi r24,hi8(-1)
 1590 0184 5807      		cpc r21,r24
 1591 0186 8FEF      		ldi r24,hlo8(-1)
 1592 0188 6807      		cpc r22,r24
 1593 018a 8FEF      		ldi r24,hhi8(-1)
 1594 018c 7807      		cpc r23,r24
 1595 018e 01F0      		breq .L100
 1596               	.L83:
 1597               	.LSM127:
 1598 0190 EC81      		ldd r30,Y+4
 1599 0192 FD81      		ldd r31,Y+5
 1600 0194 4687      		std Z+14,r20
 1601 0196 5787      		std Z+15,r21
 1602 0198 608B      		std Z+16,r22
 1603 019a 718B      		std Z+17,r23
 1604               	.LVL168:
 1605               	.L81:
 1606               	.LSM128:
 1607 019c AC81      		ldd r26,Y+4
 1608 019e BD81      		ldd r27,Y+5
 1609 01a0 5296      		adiw r26,18
 1610 01a2 4D93      		st X+,r20
 1611 01a4 5D93      		st X+,r21
 1612 01a6 6D93      		st X+,r22
 1613 01a8 7C93      		st X,r23
 1614 01aa 5597      		sbiw r26,18+3
 1615               	.L80:
 1616               	.LSM129:
 1617 01ac 4115      		cp r20,__zero_reg__
 1618 01ae 5105      		cpc r21,__zero_reg__
 1619 01b0 6105      		cpc r22,__zero_reg__
 1620 01b2 7105      		cpc r23,__zero_reg__
 1621 01b4 01F0      		breq .+2
 1622 01b6 00C0      		rjmp .L96
 1623 01b8 00C0      		rjmp .L78
 1624               	.L91:
 1625               	.LSM130:
 1626 01ba EC81      		ldd r30,Y+4
 1627 01bc FD81      		ldd r31,Y+5
 1628 01be 8481      		ldd r24,Z+4
 1629 01c0 2081      		ld r18,Z
 1630 01c2 3181      		ldd r19,Z+1
 1631               	.LVL169:
 1632 01c4 81FF      		sbrs r24,1
 1633 01c6 00C0      		rjmp .L85
 1634               	.LSM131:
 1635 01c8 C901      		movw r24,r18
 1636 01ca 0E94 0000 		call create_chain
 1637               	.LVL170:
 1638 01ce AB01      		movw r20,r22
 1639 01d0 BC01      		movw r22,r24
 1640               	.LVL171:
 1641               	.LSM132:
 1642 01d2 4115      		cp r20,__zero_reg__
 1643 01d4 5105      		cpc r21,__zero_reg__
 1644 01d6 6105      		cpc r22,__zero_reg__
 1645 01d8 7105      		cpc r23,__zero_reg__
 1646 01da 01F4      		brne .L86
 1647 01dc 6401      		movw r12,r8
 1648 01de 5301      		movw r10,r6
 1649 01e0 00C0      		rjmp .L87
 1650               	.L85:
 1651               	.LSM133:
 1652 01e2 C901      		movw r24,r18
 1653 01e4 0E94 0000 		call get_fat
 1654               	.LVL172:
 1655 01e8 AB01      		movw r20,r22
 1656 01ea BC01      		movw r22,r24
 1657               	.LVL173:
 1658               	.L86:
 1659               	.LSM134:
 1660 01ec 4F3F      		cpi r20,lo8(-1)
 1661 01ee FFEF      		ldi r31,hi8(-1)
 1662 01f0 5F07      		cpc r21,r31
 1663 01f2 FFEF      		ldi r31,hlo8(-1)
 1664 01f4 6F07      		cpc r22,r31
 1665 01f6 FFEF      		ldi r31,hhi8(-1)
 1666 01f8 7F07      		cpc r23,r31
 1667 01fa 01F4      		brne .L88
 1668               	.L100:
 1669 01fc AC81      		ldd r26,Y+4
 1670 01fe BD81      		ldd r27,Y+5
 1671 0200 1496      		adiw r26,4
 1672 0202 8C91      		ld r24,X
 1673 0204 1497      		sbiw r26,4
 1674 0206 8068      		ori r24,lo8(-128)
 1675 0208 1496      		adiw r26,4
 1676 020a 8C93      		st X,r24
 1677 020c B1E0      		ldi r27,lo8(1)
 1678 020e 00C0      		rjmp .L98
 1679               	.L88:
 1680               	.LSM135:
 1681 0210 4230      		cpi r20,lo8(2)
 1682 0212 5105      		cpc r21,__zero_reg__
 1683 0214 6105      		cpc r22,__zero_reg__
 1684 0216 7105      		cpc r23,__zero_reg__
 1685 0218 00F4      		brsh .+2
 1686 021a 00C0      		rjmp .L99
 1687 021c AC81      		ldd r26,Y+4
 1688 021e BD81      		ldd r27,Y+5
 1689 0220 ED91      		ld r30,X+
 1690 0222 FC91      		ld r31,X
 1691 0224 8689      		ldd r24,Z+22
 1692 0226 9789      		ldd r25,Z+23
 1693 0228 A08D      		ldd r26,Z+24
 1694 022a B18D      		ldd r27,Z+25
 1695 022c 4817      		cp r20,r24
 1696 022e 5907      		cpc r21,r25
 1697 0230 6A07      		cpc r22,r26
 1698 0232 7B07      		cpc r23,r27
 1699 0234 00F0      		brlo .+2
 1700 0236 00C0      		rjmp .L99
 1701               	.L90:
 1702               	.LSM136:
 1703 0238 AC81      		ldd r26,Y+4
 1704 023a BD81      		ldd r27,Y+5
 1705 023c 5296      		adiw r26,18
 1706 023e 4D93      		st X+,r20
 1707 0240 5D93      		st X+,r21
 1708 0242 6D93      		st X+,r22
 1709 0244 7C93      		st X,r23
 1710 0246 5597      		sbiw r26,18+3
 1711               	.LSM137:
 1712 0248 EC81      		ldd r30,Y+4
 1713 024a FD81      		ldd r31,Y+5
 1714 024c 8681      		ldd r24,Z+6
 1715 024e 9781      		ldd r25,Z+7
 1716 0250 A085      		ldd r26,Z+8
 1717 0252 B185      		ldd r27,Z+9
 1718 0254 860D      		add r24,r6
 1719 0256 971D      		adc r25,r7
 1720 0258 A81D      		adc r26,r8
 1721 025a B91D      		adc r27,r9
 1722 025c 8683      		std Z+6,r24
 1723 025e 9783      		std Z+7,r25
 1724 0260 A087      		std Z+8,r26
 1725 0262 B187      		std Z+9,r27
 1726               	.LSM138:
 1727 0264 A618      		sub r10,r6
 1728 0266 B708      		sbc r11,r7
 1729 0268 C808      		sbc r12,r8
 1730 026a D908      		sbc r13,r9
 1731               	.LVL174:
 1732               	.L96:
 1733               	.LSM139:
 1734 026c 6A14      		cp r6,r10
 1735 026e 7B04      		cpc r7,r11
 1736 0270 8C04      		cpc r8,r12
 1737 0272 9D04      		cpc r9,r13
 1738 0274 00F4      		brsh .+2
 1739 0276 00C0      		rjmp .L91
 1740               	.L87:
 1741               	.LSM140:
 1742 0278 EC81      		ldd r30,Y+4
 1743 027a FD81      		ldd r31,Y+5
 1744 027c 8681      		ldd r24,Z+6
 1745 027e 9781      		ldd r25,Z+7
 1746 0280 A085      		ldd r26,Z+8
 1747 0282 B185      		ldd r27,Z+9
 1748 0284 8A0D      		add r24,r10
 1749 0286 9B1D      		adc r25,r11
 1750 0288 AC1D      		adc r26,r12
 1751 028a BD1D      		adc r27,r13
 1752 028c 8683      		std Z+6,r24
 1753 028e 9783      		std Z+7,r25
 1754 0290 A087      		std Z+8,r26
 1755 0292 B187      		std Z+9,r27
 1756               	.LSM141:
 1757 0294 D601      		movw r26,r12
 1758 0296 C501      		movw r24,r10
 1759 0298 9170      		andi r25,hi8(511)
 1760 029a A070      		andi r26,hlo8(511)
 1761 029c B070      		andi r27,hhi8(511)
 1762 029e 0097      		sbiw r24,0
 1763 02a0 A105      		cpc r26,__zero_reg__
 1764 02a2 B105      		cpc r27,__zero_reg__
 1765 02a4 01F0      		breq .L78
 1766               	.LSM142:
 1767 02a6 8081      		ld r24,Z
 1768 02a8 9181      		ldd r25,Z+1
 1769 02aa 0E94 0000 		call clust2sect
 1770               	.LVL175:
 1771               	.LSM143:
 1772 02ae 6115      		cp r22,__zero_reg__
 1773 02b0 7105      		cpc r23,__zero_reg__
 1774 02b2 8105      		cpc r24,__zero_reg__
 1775 02b4 9105      		cpc r25,__zero_reg__
 1776               	.LVL176:
 1777 02b6 01F4      		brne .L92
 1778 02b8 AC81      		ldd r26,Y+4
 1779 02ba BD81      		ldd r27,Y+5
 1780 02bc 1496      		adiw r26,4
 1781 02be 8C91      		ld r24,X
 1782 02c0 1497      		sbiw r26,4
 1783 02c2 8068      		ori r24,lo8(-128)
 1784 02c4 1496      		adiw r26,4
 1785 02c6 8C93      		st X,r24
 1786 02c8 B2E0      		ldi r27,lo8(2)
 1787               	.LVL177:
 1788               	.L98:
 1789 02ca BB83      		std Y+3,r27
 1790               	.LVL178:
 1791 02cc 00C0      		rjmp .L74
 1792               	.LVL179:
 1793               	.L92:
 1794               	.LSM144:
 1795 02ce A601      		movw r20,r12
 1796 02d0 9501      		movw r18,r10
 1797               	.LVL180:
 1798 02d2 E9E0      		ldi r30,9
 1799 02d4 5695      	1:	lsr r21
 1800 02d6 4795      		ror r20
 1801 02d8 3795      		ror r19
 1802 02da 2795      		ror r18
 1803 02dc EA95      		dec r30
 1804 02de 01F4      		brne 1b
 1805 02e0 260F      		add r18,r22
 1806 02e2 371F      		adc r19,r23
 1807 02e4 481F      		adc r20,r24
 1808 02e6 591F      		adc r21,r25
 1809 02e8 00C0      		rjmp .L93
 1810               	.LVL181:
 1811               	.L78:
 1812 02ea 20E0      		ldi r18,lo8(0)
 1813 02ec 30E0      		ldi r19,hi8(0)
 1814 02ee 40E0      		ldi r20,hlo8(0)
 1815 02f0 50E0      		ldi r21,hhi8(0)
 1816               	.LVL182:
 1817               	.L93:
 1818               	.LSM145:
 1819 02f2 EC81      		ldd r30,Y+4
 1820 02f4 FD81      		ldd r31,Y+5
 1821 02f6 8681      		ldd r24,Z+6
 1822 02f8 9781      		ldd r25,Z+7
 1823 02fa A085      		ldd r26,Z+8
 1824 02fc B185      		ldd r27,Z+9
 1825 02fe 9170      		andi r25,hi8(511)
 1826 0300 A070      		andi r26,hlo8(511)
 1827 0302 B070      		andi r27,hhi8(511)
 1828 0304 0097      		sbiw r24,0
 1829 0306 A105      		cpc r26,__zero_reg__
 1830 0308 B105      		cpc r27,__zero_reg__
 1831 030a 01F0      		breq .L94
 1832 030c 8689      		ldd r24,Z+22
 1833 030e 9789      		ldd r25,Z+23
 1834 0310 A08D      		ldd r26,Z+24
 1835 0312 B18D      		ldd r27,Z+25
 1836 0314 2817      		cp r18,r24
 1837 0316 3907      		cpc r19,r25
 1838 0318 4A07      		cpc r20,r26
 1839 031a 5B07      		cpc r21,r27
 1840 031c 01F0      		breq .L94
 1841               	.LSM146:
 1842 031e 268B      		std Z+22,r18
 1843 0320 378B      		std Z+23,r19
 1844 0322 408F      		std Z+24,r20
 1845 0324 518F      		std Z+25,r21
 1846               	.L94:
 1847               	.LSM147:
 1848 0326 EC81      		ldd r30,Y+4
 1849 0328 FD81      		ldd r31,Y+5
 1850 032a 2681      		ldd r18,Z+6
 1851 032c 3781      		ldd r19,Z+7
 1852 032e 4085      		ldd r20,Z+8
 1853 0330 5185      		ldd r21,Z+9
 1854               	.LVL183:
 1855 0332 8285      		ldd r24,Z+10
 1856 0334 9385      		ldd r25,Z+11
 1857 0336 A485      		ldd r26,Z+12
 1858 0338 B585      		ldd r27,Z+13
 1859 033a 8217      		cp r24,r18
 1860 033c 9307      		cpc r25,r19
 1861 033e A407      		cpc r26,r20
 1862 0340 B507      		cpc r27,r21
 1863 0342 00F4      		brsh .L74
 1864               	.LSM148:
 1865 0344 2287      		std Z+10,r18
 1866 0346 3387      		std Z+11,r19
 1867 0348 4487      		std Z+12,r20
 1868 034a 5587      		std Z+13,r21
 1869               	.LSM149:
 1870 034c 8481      		ldd r24,Z+4
 1871 034e 8062      		ori r24,lo8(32)
 1872 0350 8483      		std Z+4,r24
 1873               	.LVL184:
 1874               	.L74:
 1875               	.LBE3:
 1876               	.LSM150:
 1877 0352 8B81      		ldd r24,Y+3
 1878               	/* epilogue start */
 1879 0354 0F90      		pop __tmp_reg__
 1880 0356 0F90      		pop __tmp_reg__
 1881 0358 0F90      		pop __tmp_reg__
 1882 035a 0F90      		pop __tmp_reg__
 1883 035c 0F90      		pop __tmp_reg__
 1884 035e CF91      		pop r28
 1885 0360 DF91      		pop r29
 1886 0362 1F91      		pop r17
 1887 0364 0F91      		pop r16
 1888 0366 FF90      		pop r15
 1889 0368 EF90      		pop r14
 1890 036a DF90      		pop r13
 1891 036c CF90      		pop r12
 1892 036e BF90      		pop r11
 1893 0370 AF90      		pop r10
 1894               	.LVL185:
 1895 0372 9F90      		pop r9
 1896 0374 8F90      		pop r8
 1897               	.LVL186:
 1898 0376 7F90      		pop r7
 1899               	.LVL187:
 1900 0378 6F90      		pop r6
 1901               	.LVL188:
 1902 037a 5F90      		pop r5
 1903 037c 4F90      		pop r4
 1904 037e 3F90      		pop r3
 1905 0380 2F90      		pop r2
 1906 0382 0895      		ret
 1907               	.LFE162:
 1909               		.section	.text.dir_sdi,"ax",@progbits
 1911               	dir_sdi:
 1912               	.LFB147:
 1913               	.LSM151:
 1914               	.LVL189:
 1915 0000 EF92      		push r14
 1916 0002 FF92      		push r15
 1917 0004 0F93      		push r16
 1918 0006 1F93      		push r17
 1919 0008 CF93      		push r28
 1920 000a DF93      		push r29
 1921               	/* prologue: function */
 1922               	/* frame size = 0 */
 1923 000c EC01      		movw r28,r24
 1924 000e 8B01      		movw r16,r22
 1925               	.LSM152:
 1926 0010 7D83      		std Y+5,r23
 1927 0012 6C83      		std Y+4,r22
 1928               	.LSM153:
 1929 0014 4E81      		ldd r20,Y+6
 1930 0016 5F81      		ldd r21,Y+7
 1931 0018 6885      		ldd r22,Y+8
 1932 001a 7985      		ldd r23,Y+9
 1933               	.LVL190:
 1934               	.LSM154:
 1935 001c 4130      		cpi r20,lo8(1)
 1936 001e 5105      		cpc r21,__zero_reg__
 1937 0020 6105      		cpc r22,__zero_reg__
 1938 0022 7105      		cpc r23,__zero_reg__
 1939 0024 01F4      		brne .+2
 1940 0026 00C0      		rjmp .L102
 1941               	.LVL191:
 1942 0028 E881      		ld r30,Y
 1943 002a F981      		ldd r31,Y+1
 1944 002c 8689      		ldd r24,Z+22
 1945 002e 9789      		ldd r25,Z+23
 1946 0030 A08D      		ldd r26,Z+24
 1947 0032 B18D      		ldd r27,Z+25
 1948 0034 4817      		cp r20,r24
 1949 0036 5907      		cpc r21,r25
 1950 0038 6A07      		cpc r22,r26
 1951 003a 7B07      		cpc r23,r27
 1952 003c 00F0      		brlo .+2
 1953 003e 00C0      		rjmp .L102
 1954               	.LSM155:
 1955 0040 4115      		cp r20,__zero_reg__
 1956 0042 5105      		cpc r21,__zero_reg__
 1957 0044 6105      		cpc r22,__zero_reg__
 1958 0046 7105      		cpc r23,__zero_reg__
 1959 0048 01F4      		brne .L103
 1960 004a 8081      		ld r24,Z
 1961 004c 8330      		cpi r24,lo8(3)
 1962 004e 01F4      		brne .L104
 1963               	.LSM156:
 1964 0050 42A1      		ldd r20,Z+34
 1965 0052 53A1      		ldd r21,Z+35
 1966 0054 64A1      		ldd r22,Z+36
 1967 0056 75A1      		ldd r23,Z+37
 1968               	.LSM157:
 1969 0058 4115      		cp r20,__zero_reg__
 1970 005a 5105      		cpc r21,__zero_reg__
 1971 005c 6105      		cpc r22,__zero_reg__
 1972 005e 7105      		cpc r23,__zero_reg__
 1973 0060 01F4      		brne .L103
 1974               	.L104:
 1975               	.LSM158:
 1976 0062 1A86      		std Y+10,__zero_reg__
 1977 0064 1B86      		std Y+11,__zero_reg__
 1978 0066 1C86      		std Y+12,__zero_reg__
 1979 0068 1D86      		std Y+13,__zero_reg__
 1980               	.LSM159:
 1981 006a E881      		ld r30,Y
 1982 006c F981      		ldd r31,Y+1
 1983 006e 8085      		ldd r24,Z+8
 1984 0070 9185      		ldd r25,Z+9
 1985 0072 0817      		cp r16,r24
 1986 0074 1907      		cpc r17,r25
 1987 0076 00F0      		brlo .+2
 1988 0078 00C0      		rjmp .L102
 1989               	.LVL192:
 1990               	.LSM160:
 1991 007a C801      		movw r24,r16
 1992 007c 24E0      		ldi r18,4
 1993 007e 9695      	1:	lsr r25
 1994 0080 8795      		ror r24
 1995 0082 2A95      		dec r18
 1996 0084 01F4      		brne 1b
 1997 0086 A0E0      		ldi r26,lo8(0)
 1998 0088 B0E0      		ldi r27,hi8(0)
 1999 008a 22A1      		ldd r18,Z+34
 2000 008c 33A1      		ldd r19,Z+35
 2001 008e 44A1      		ldd r20,Z+36
 2002 0090 55A1      		ldd r21,Z+37
 2003 0092 820F      		add r24,r18
 2004 0094 931F      		adc r25,r19
 2005 0096 A41F      		adc r26,r20
 2006 0098 B51F      		adc r27,r21
 2007 009a 8E87      		std Y+14,r24
 2008 009c 9F87      		std Y+15,r25
 2009 009e A88B      		std Y+16,r26
 2010 00a0 B98B      		std Y+17,r27
 2011 00a2 00C0      		rjmp .L105
 2012               	.LVL193:
 2013               	.L103:
 2014               	.LSM161:
 2015 00a4 8281      		ldd r24,Z+2
 2016 00a6 E82E      		mov r14,r24
 2017               	.LVL194:
 2018 00a8 FF24      		clr r15
 2019               	.LVL195:
 2020 00aa 84E0      		ldi r24,4
 2021 00ac EE0C      	1:	lsl r14
 2022 00ae FF1C      		rol r15
 2023 00b0 8A95      		dec r24
 2024 00b2 01F4      		brne 1b
 2025               	.LVL196:
 2026 00b4 00C0      		rjmp .L106
 2027               	.LVL197:
 2028               	.L109:
 2029               	.LSM162:
 2030 00b6 0E94 0000 		call get_fat
 2031               	.LVL198:
 2032 00ba AB01      		movw r20,r22
 2033 00bc BC01      		movw r22,r24
 2034               	.LVL199:
 2035               	.LSM163:
 2036 00be 4F3F      		cpi r20,lo8(-1)
 2037 00c0 8FEF      		ldi r24,hi8(-1)
 2038 00c2 5807      		cpc r21,r24
 2039 00c4 8FEF      		ldi r24,hlo8(-1)
 2040 00c6 6807      		cpc r22,r24
 2041 00c8 8FEF      		ldi r24,hhi8(-1)
 2042 00ca 7807      		cpc r23,r24
 2043 00cc 01F4      		brne .L107
 2044 00ce 81E0      		ldi r24,lo8(1)
 2045 00d0 00C0      		rjmp .L108
 2046               	.L107:
 2047               	.LSM164:
 2048 00d2 4230      		cpi r20,lo8(2)
 2049 00d4 5105      		cpc r21,__zero_reg__
 2050 00d6 6105      		cpc r22,__zero_reg__
 2051 00d8 7105      		cpc r23,__zero_reg__
 2052 00da 00F0      		brlo .L102
 2053 00dc E881      		ld r30,Y
 2054 00de F981      		ldd r31,Y+1
 2055 00e0 8689      		ldd r24,Z+22
 2056 00e2 9789      		ldd r25,Z+23
 2057 00e4 A08D      		ldd r26,Z+24
 2058 00e6 B18D      		ldd r27,Z+25
 2059 00e8 4817      		cp r20,r24
 2060 00ea 5907      		cpc r21,r25
 2061 00ec 6A07      		cpc r22,r26
 2062 00ee 7B07      		cpc r23,r27
 2063 00f0 00F4      		brsh .L102
 2064               	.LSM165:
 2065 00f2 0E19      		sub r16,r14
 2066 00f4 1F09      		sbc r17,r15
 2067               	.LVL200:
 2068               	.L106:
 2069 00f6 8881      		ld r24,Y
 2070 00f8 9981      		ldd r25,Y+1
 2071               	.LSM166:
 2072 00fa 0E15      		cp r16,r14
 2073 00fc 1F05      		cpc r17,r15
 2074 00fe 00F4      		brsh .L109
 2075               	.LSM167:
 2076 0100 4A87      		std Y+10,r20
 2077 0102 5B87      		std Y+11,r21
 2078 0104 6C87      		std Y+12,r22
 2079 0106 7D87      		std Y+13,r23
 2080               	.LSM168:
 2081 0108 0E94 0000 		call clust2sect
 2082               	.LVL201:
 2083 010c 9801      		movw r18,r16
 2084 010e B4E0      		ldi r27,4
 2085 0110 3695      	1:	lsr r19
 2086 0112 2795      		ror r18
 2087 0114 BA95      		dec r27
 2088 0116 01F4      		brne 1b
 2089 0118 40E0      		ldi r20,lo8(0)
 2090 011a 50E0      		ldi r21,hi8(0)
 2091 011c 260F      		add r18,r22
 2092 011e 371F      		adc r19,r23
 2093 0120 481F      		adc r20,r24
 2094 0122 591F      		adc r21,r25
 2095 0124 2E87      		std Y+14,r18
 2096 0126 3F87      		std Y+15,r19
 2097 0128 488B      		std Y+16,r20
 2098 012a 598B      		std Y+17,r21
 2099               	.LVL202:
 2100               	.L105:
 2101               	.LSM169:
 2102 012c 8881      		ld r24,Y
 2103 012e 9981      		ldd r25,Y+1
 2104 0130 8E96      		adiw r24,46
 2105 0132 0F70      		andi r16,lo8(15)
 2106 0134 1070      		andi r17,hi8(15)
 2107 0136 A5E0      		ldi r26,5
 2108 0138 000F      	1:	lsl r16
 2109 013a 111F      		rol r17
 2110 013c AA95      		dec r26
 2111 013e 01F4      		brne 1b
 2112 0140 800F      		add r24,r16
 2113 0142 911F      		adc r25,r17
 2114 0144 9B8B      		std Y+19,r25
 2115 0146 8A8B      		std Y+18,r24
 2116 0148 80E0      		ldi r24,lo8(0)
 2117 014a 00C0      		rjmp .L108
 2118               	.LVL203:
 2119               	.L102:
 2120               	.LSM170:
 2121 014c 82E0      		ldi r24,lo8(2)
 2122               	.L108:
 2123               	/* epilogue start */
 2124               	.LSM171:
 2125 014e DF91      		pop r29
 2126 0150 CF91      		pop r28
 2127               	.LVL204:
 2128 0152 1F91      		pop r17
 2129 0154 0F91      		pop r16
 2130               	.LVL205:
 2131 0156 FF90      		pop r15
 2132               	.LVL206:
 2133 0158 EF90      		pop r14
 2134               	.LVL207:
 2135 015a 0895      		ret
 2136               	.LFE147:
 2138               		.section	.text.f_write,"ax",@progbits
 2139               	.global	f_write
 2141               	f_write:
 2142               	.LFB159:
 2143               	.LSM172:
 2144               	.LVL208:
 2145 0000 2F92      		push r2
 2146 0002 3F92      		push r3
 2147 0004 4F92      		push r4
 2148 0006 5F92      		push r5
 2149 0008 6F92      		push r6
 2150 000a 7F92      		push r7
 2151 000c 8F92      		push r8
 2152 000e 9F92      		push r9
 2153 0010 AF92      		push r10
 2154 0012 BF92      		push r11
 2155 0014 CF92      		push r12
 2156 0016 DF92      		push r13
 2157 0018 EF92      		push r14
 2158 001a FF92      		push r15
 2159 001c 0F93      		push r16
 2160 001e 1F93      		push r17
 2161 0020 CF93      		push r28
 2162 0022 DF93      		push r29
 2163               	/* prologue: function */
 2164               	/* frame size = 0 */
 2165 0024 EC01      		movw r28,r24
 2166 0026 162F      		mov r17,r22
 2167 0028 072F      		mov r16,r23
 2168               	.LVL209:
 2169 002a 3A01      		movw r6,r20
 2170 002c 1901      		movw r2,r18
 2171               	.LSM173:
 2172 002e F901      		movw r30,r18
 2173 0030 1182      		std Z+1,__zero_reg__
 2174 0032 1082      		st Z,__zero_reg__
 2175               	.LSM174:
 2176 0034 6A81      		ldd r22,Y+2
 2177 0036 7B81      		ldd r23,Y+3
 2178               	.LVL210:
 2179 0038 8881      		ld r24,Y
 2180 003a 9981      		ldd r25,Y+1
 2181               	.LVL211:
 2182 003c 0E94 0000 		call validate
 2183               	.LVL212:
 2184 0040 882E      		mov r8,r24
 2185               	.LVL213:
 2186               	.LSM175:
 2187 0042 8823      		tst r24
 2188 0044 01F0      		breq .+2
 2189 0046 00C0      		rjmp .L112
 2190               	.LVL214:
 2191               	.LSM176:
 2192 0048 8C81      		ldd r24,Y+4
 2193               	.LVL215:
 2194 004a 87FD      		sbrc r24,7
 2195 004c 00C0      		rjmp .L139
 2196               	.L113:
 2197               	.LSM177:
 2198 004e 81FD      		sbrc r24,1
 2199 0050 00C0      		rjmp .L114
 2200 0052 07E0      		ldi r16,lo8(7)
 2201 0054 802E      		mov r8,r16
 2202               	.LVL216:
 2203 0056 00C0      		rjmp .L112
 2204               	.LVL217:
 2205               	.L114:
 2206               	.LSM178:
 2207 0058 2A85      		ldd r18,Y+10
 2208 005a 3B85      		ldd r19,Y+11
 2209 005c 4C85      		ldd r20,Y+12
 2210 005e 5D85      		ldd r21,Y+13
 2211 0060 C301      		movw r24,r6
 2212 0062 A0E0      		ldi r26,lo8(0)
 2213 0064 B0E0      		ldi r27,hi8(0)
 2214               	.LVL218:
 2215 0066 820F      		add r24,r18
 2216 0068 931F      		adc r25,r19
 2217 006a A41F      		adc r26,r20
 2218 006c B51F      		adc r27,r21
 2219               	.LVL219:
 2220 006e 8217      		cp r24,r18
 2221 0070 9307      		cpc r25,r19
 2222 0072 A407      		cpc r26,r20
 2223 0074 B507      		cpc r27,r21
 2224 0076 00F4      		brsh .L115
 2225 0078 6624      		clr r6
 2226 007a 7724      		clr r7
 2227               	.LVL220:
 2228               	.L115:
 2229               	.LSM179:
 2230 007c 812F      		mov r24,r17
 2231               	.LVL221:
 2232 007e 902F      		mov r25,r16
 2233               	.LVL222:
 2234 0080 9C01      		movw r18,r24
 2235               	.LVL223:
 2236 0082 2901      		movw r4,r18
 2237               	.LVL224:
 2238 0084 00C0      		rjmp .L116
 2239               	.LVL225:
 2240               	.L136:
 2241               	.LSM180:
 2242 0086 2E81      		ldd r18,Y+6
 2243 0088 3F81      		ldd r19,Y+7
 2244 008a 4885      		ldd r20,Y+8
 2245 008c 5985      		ldd r21,Y+9
 2246 008e DA01      		movw r26,r20
 2247 0090 C901      		movw r24,r18
 2248 0092 9170      		andi r25,hi8(511)
 2249 0094 A070      		andi r26,hlo8(511)
 2250 0096 B070      		andi r27,hhi8(511)
 2251 0098 0097      		sbiw r24,0
 2252 009a A105      		cpc r26,__zero_reg__
 2253 009c B105      		cpc r27,__zero_reg__
 2254 009e 01F0      		breq .+2
 2255 00a0 00C0      		rjmp .L117
 2256               	.LSM181:
 2257 00a2 E881      		ld r30,Y
 2258 00a4 F981      		ldd r31,Y+1
 2259 00a6 DA01      		movw r26,r20
 2260 00a8 C901      		movw r24,r18
 2261 00aa 19E0      		ldi r17,9
 2262 00ac B695      	1:	lsr r27
 2263 00ae A795      		ror r26
 2264 00b0 9795      		ror r25
 2265 00b2 8795      		ror r24
 2266 00b4 1A95      		dec r17
 2267 00b6 01F4      		brne 1b
 2268               	.LVL226:
 2269 00b8 9280      		ldd r9,Z+2
 2270 00ba 9A94      		dec r9
 2271 00bc 9822      		and r9,r24
 2272               	.LSM182:
 2273 00be 01F0      		breq .+2
 2274 00c0 00C0      		rjmp .L118
 2275               	.LSM183:
 2276 00c2 2115      		cp r18,__zero_reg__
 2277 00c4 3105      		cpc r19,__zero_reg__
 2278 00c6 4105      		cpc r20,__zero_reg__
 2279 00c8 5105      		cpc r21,__zero_reg__
 2280 00ca 01F4      		brne .L119
 2281               	.LSM184:
 2282 00cc 6E85      		ldd r22,Y+14
 2283 00ce 7F85      		ldd r23,Y+15
 2284 00d0 8889      		ldd r24,Y+16
 2285 00d2 9989      		ldd r25,Y+17
 2286               	.LVL227:
 2287               	.LSM185:
 2288 00d4 6115      		cp r22,__zero_reg__
 2289 00d6 7105      		cpc r23,__zero_reg__
 2290 00d8 8105      		cpc r24,__zero_reg__
 2291 00da 9105      		cpc r25,__zero_reg__
 2292 00dc 01F4      		brne .L120
 2293               	.LSM186:
 2294 00de CF01      		movw r24,r30
 2295 00e0 40E0      		ldi r20,lo8(0)
 2296 00e2 50E0      		ldi r21,hi8(0)
 2297 00e4 60E0      		ldi r22,hlo8(0)
 2298 00e6 70E0      		ldi r23,hhi8(0)
 2299 00e8 0E94 0000 		call create_chain
 2300               	.LVL228:
 2301 00ec 6E87      		std Y+14,r22
 2302 00ee 7F87      		std Y+15,r23
 2303 00f0 888B      		std Y+16,r24
 2304 00f2 998B      		std Y+17,r25
 2305               	.LVL229:
 2306 00f4 00C0      		rjmp .L121
 2307               	.LVL230:
 2308               	.L119:
 2309               	.LSM187:
 2310 00f6 4A89      		ldd r20,Y+18
 2311 00f8 5B89      		ldd r21,Y+19
 2312 00fa 6C89      		ldd r22,Y+20
 2313 00fc 7D89      		ldd r23,Y+21
 2314 00fe CF01      		movw r24,r30
 2315 0100 0E94 0000 		call create_chain
 2316               	.LVL231:
 2317               	.L121:
 2318               	.LSM188:
 2319 0104 6115      		cp r22,__zero_reg__
 2320 0106 7105      		cpc r23,__zero_reg__
 2321 0108 8105      		cpc r24,__zero_reg__
 2322 010a 9105      		cpc r25,__zero_reg__
 2323 010c 01F4      		brne .+2
 2324 010e 00C0      		rjmp .L122
 2325               	.LVL232:
 2326               	.L120:
 2327               	.LSM189:
 2328 0110 6130      		cpi r22,lo8(1)
 2329 0112 7105      		cpc r23,__zero_reg__
 2330 0114 8105      		cpc r24,__zero_reg__
 2331 0116 9105      		cpc r25,__zero_reg__
 2332 0118 01F4      		brne .L123
 2333               	.LVL233:
 2334               	.L141:
 2335 011a 8C81      		ldd r24,Y+4
 2336 011c 8068      		ori r24,lo8(-128)
 2337 011e 8C83      		std Y+4,r24
 2338               	.LVL234:
 2339               	.L139:
 2340 0120 E2E0      		ldi r30,lo8(2)
 2341 0122 8E2E      		mov r8,r30
 2342 0124 00C0      		rjmp .L112
 2343               	.LVL235:
 2344               	.L123:
 2345               	.LSM190:
 2346 0126 6F3F      		cpi r22,lo8(-1)
 2347 0128 FFEF      		ldi r31,hi8(-1)
 2348 012a 7F07      		cpc r23,r31
 2349 012c FFEF      		ldi r31,hlo8(-1)
 2350 012e 8F07      		cpc r24,r31
 2351 0130 FFEF      		ldi r31,hhi8(-1)
 2352 0132 9F07      		cpc r25,r31
 2353 0134 01F4      		brne .+2
 2354 0136 00C0      		rjmp .L140
 2355               	.L124:
 2356               	.LSM191:
 2357 0138 6A8B      		std Y+18,r22
 2358 013a 7B8B      		std Y+19,r23
 2359 013c 8C8B      		std Y+20,r24
 2360 013e 9D8B      		std Y+21,r25
 2361               	.L118:
 2362               	.LSM192:
 2363 0140 E881      		ld r30,Y
 2364 0142 F981      		ldd r31,Y+1
 2365 0144 22A5      		ldd r18,Z+42
 2366 0146 33A5      		ldd r19,Z+43
 2367 0148 44A5      		ldd r20,Z+44
 2368 014a 55A5      		ldd r21,Z+45
 2369 014c 8E89      		ldd r24,Y+22
 2370 014e 9F89      		ldd r25,Y+23
 2371 0150 A88D      		ldd r26,Y+24
 2372 0152 B98D      		ldd r27,Y+25
 2373 0154 2817      		cp r18,r24
 2374 0156 3907      		cpc r19,r25
 2375 0158 4A07      		cpc r20,r26
 2376 015a 5B07      		cpc r21,r27
 2377 015c 01F4      		brne .L125
 2378 015e CF01      		movw r24,r30
 2379 0160 40E0      		ldi r20,lo8(0)
 2380 0162 50E0      		ldi r21,hi8(0)
 2381 0164 60E0      		ldi r22,hlo8(0)
 2382 0166 70E0      		ldi r23,hhi8(0)
 2383 0168 0E94 0000 		call move_window
 2384               	.LVL236:
 2385 016c 8823      		tst r24
 2386 016e 01F0      		breq .+2
 2387 0170 00C0      		rjmp .L140
 2388               	.LVL237:
 2389               	.L125:
 2390               	.LSM193:
 2391 0172 0881      		ld r16,Y
 2392 0174 1981      		ldd r17,Y+1
 2393               	.LVL238:
 2394 0176 4A89      		ldd r20,Y+18
 2395 0178 5B89      		ldd r21,Y+19
 2396 017a 6C89      		ldd r22,Y+20
 2397 017c 7D89      		ldd r23,Y+21
 2398 017e C801      		movw r24,r16
 2399 0180 0E94 0000 		call clust2sect
 2400               	.LVL239:
 2401               	.LSM194:
 2402 0184 6115      		cp r22,__zero_reg__
 2403 0186 7105      		cpc r23,__zero_reg__
 2404 0188 8105      		cpc r24,__zero_reg__
 2405 018a 9105      		cpc r25,__zero_reg__
 2406 018c 01F0      		breq .L141
 2407               	.LVL240:
 2408               	.L126:
 2409               	.LSM195:
 2410 018e 6B01      		movw r12,r22
 2411 0190 7C01      		movw r14,r24
 2412 0192 C90C      		add r12,r9
 2413 0194 D11C      		adc r13,__zero_reg__
 2414 0196 E11C      		adc r14,__zero_reg__
 2415 0198 F11C      		adc r15,__zero_reg__
 2416               	.LVL241:
 2417               	.LSM196:
 2418 019a 5301      		movw r10,r6
 2419 019c AB2C      		mov r10,r11
 2420 019e BB24      		clr r11
 2421 01a0 A694      		lsr r10
 2422               	.LSM197:
 2423 01a2 A114      		cp r10,__zero_reg__
 2424 01a4 B104      		cpc r11,__zero_reg__
 2425 01a6 01F4      		brne .+2
 2426 01a8 00C0      		rjmp .L127
 2427               	.LSM198:
 2428 01aa F801      		movw r30,r16
 2429 01ac 2281      		ldd r18,Z+2
 2430 01ae 492D      		mov r20,r9
 2431 01b0 50E0      		ldi r21,lo8(0)
 2432               	.LVL242:
 2433 01b2 C501      		movw r24,r10
 2434 01b4 840F      		add r24,r20
 2435 01b6 951F      		adc r25,r21
 2436 01b8 30E0      		ldi r19,lo8(0)
 2437 01ba 2817      		cp r18,r24
 2438 01bc 3907      		cpc r19,r25
 2439 01be 00F4      		brsh .L128
 2440               	.LVL243:
 2441               	.LSM199:
 2442 01c0 5901      		movw r10,r18
 2443 01c2 A41A      		sub r10,r20
 2444 01c4 B50A      		sbc r11,r21
 2445               	.L128:
 2446               	.LSM200:
 2447 01c6 F801      		movw r30,r16
 2448 01c8 8181      		ldd r24,Z+1
 2449 01ca B201      		movw r22,r4
 2450 01cc A701      		movw r20,r14
 2451 01ce 9601      		movw r18,r12
 2452 01d0 0A2D      		mov r16,r10
 2453 01d2 0E94 0000 		call disk_write
 2454               	.LVL244:
 2455 01d6 8823      		tst r24
 2456 01d8 01F0      		breq .+2
 2457 01da 00C0      		rjmp .L140
 2458               	.L129:
 2459               	.LSM201:
 2460 01dc E881      		ld r30,Y
 2461 01de F981      		ldd r31,Y+1
 2462 01e0 22A5      		ldd r18,Z+42
 2463 01e2 33A5      		ldd r19,Z+43
 2464 01e4 44A5      		ldd r20,Z+44
 2465 01e6 55A5      		ldd r21,Z+45
 2466 01e8 2C19      		sub r18,r12
 2467 01ea 3D09      		sbc r19,r13
 2468 01ec 4E09      		sbc r20,r14
 2469 01ee 5F09      		sbc r21,r15
 2470 01f0 C501      		movw r24,r10
 2471 01f2 A0E0      		ldi r26,lo8(0)
 2472 01f4 B0E0      		ldi r27,hi8(0)
 2473               	.LVL245:
 2474 01f6 2817      		cp r18,r24
 2475 01f8 3907      		cpc r19,r25
 2476 01fa 4A07      		cpc r20,r26
 2477 01fc 5B07      		cpc r21,r27
 2478 01fe 00F4      		brsh .L130
 2479               	.LVL246:
 2480               	.LSM202:
 2481 0200 69E0      		ldi r22,9
 2482 0202 220F      	1:	lsl r18
 2483 0204 331F      		rol r19
 2484 0206 441F      		rol r20
 2485 0208 551F      		rol r21
 2486 020a 6A95      		dec r22
 2487 020c 01F4      		brne 1b
 2488 020e B201      		movw r22,r4
 2489 0210 620F      		add r22,r18
 2490 0212 731F      		adc r23,r19
 2491 0214 CF01      		movw r24,r30
 2492               	.LVL247:
 2493 0216 8E96      		adiw r24,46
 2494 0218 40E0      		ldi r20,lo8(512)
 2495 021a 52E0      		ldi r21,hi8(512)
 2496 021c 0E94 0000 		call mem_cpy
 2497               	.LVL248:
 2498               	.LSM203:
 2499 0220 E881      		ld r30,Y
 2500 0222 F981      		ldd r31,Y+1
 2501 0224 1482      		std Z+4,__zero_reg__
 2502               	.LVL249:
 2503               	.L130:
 2504               	.LSM204:
 2505 0226 8501      		movw r16,r10
 2506               	.LVL250:
 2507 0228 102F      		mov r17,r16
 2508 022a 0027      		clr r16
 2509 022c 110F      		lsl r17
 2510 022e 00C0      		rjmp .L131
 2511               	.LVL251:
 2512               	.L127:
 2513               	.LSM205:
 2514 0230 2E81      		ldd r18,Y+6
 2515 0232 3F81      		ldd r19,Y+7
 2516 0234 4885      		ldd r20,Y+8
 2517 0236 5985      		ldd r21,Y+9
 2518 0238 8A85      		ldd r24,Y+10
 2519 023a 9B85      		ldd r25,Y+11
 2520 023c AC85      		ldd r26,Y+12
 2521 023e BD85      		ldd r27,Y+13
 2522 0240 2817      		cp r18,r24
 2523 0242 3907      		cpc r19,r25
 2524 0244 4A07      		cpc r20,r26
 2525 0246 5B07      		cpc r21,r27
 2526 0248 00F0      		brlo .L132
 2527               	.LSM206:
 2528 024a C801      		movw r24,r16
 2529 024c 40E0      		ldi r20,lo8(0)
 2530 024e 50E0      		ldi r21,hi8(0)
 2531 0250 60E0      		ldi r22,hlo8(0)
 2532 0252 70E0      		ldi r23,hhi8(0)
 2533 0254 0E94 0000 		call move_window
 2534 0258 8823      		tst r24
 2535 025a 01F4      		brne .L140
 2536               	.L133:
 2537               	.LSM207:
 2538 025c E881      		ld r30,Y
 2539 025e F981      		ldd r31,Y+1
 2540 0260 C2A6      		std Z+42,r12
 2541 0262 D3A6      		std Z+43,r13
 2542 0264 E4A6      		std Z+44,r14
 2543 0266 F5A6      		std Z+45,r15
 2544               	.L132:
 2545               	.LSM208:
 2546 0268 CE8A      		std Y+22,r12
 2547 026a DF8A      		std Y+23,r13
 2548 026c E88E      		std Y+24,r14
 2549 026e F98E      		std Y+25,r15
 2550               	.LVL252:
 2551               	.L117:
 2552               	.LSM209:
 2553 0270 EE80      		ldd r14,Y+6
 2554 0272 FF80      		ldd r15,Y+7
 2555 0274 0885      		ldd r16,Y+8
 2556 0276 1985      		ldd r17,Y+9
 2557               	.LSM210:
 2558 0278 4E89      		ldd r20,Y+22
 2559 027a 5F89      		ldd r21,Y+23
 2560 027c 688D      		ldd r22,Y+24
 2561 027e 798D      		ldd r23,Y+25
 2562 0280 8881      		ld r24,Y
 2563 0282 9981      		ldd r25,Y+1
 2564 0284 0E94 0000 		call move_window
 2565               	.LVL253:
 2566 0288 8823      		tst r24
 2567 028a 01F0      		breq .L134
 2568               	.LVL254:
 2569               	.L140:
 2570               	.LSM211:
 2571 028c 8C81      		ldd r24,Y+4
 2572 028e 8068      		ori r24,lo8(-128)
 2573 0290 8C83      		std Y+4,r24
 2574 0292 8824      		clr r8
 2575 0294 8394      		inc r8
 2576 0296 00C0      		rjmp .L112
 2577               	.LVL255:
 2578               	.L134:
 2579               	.LSM212:
 2580 0298 C701      		movw r24,r14
 2581 029a 9170      		andi r25,hi8(511)
 2582 029c 20E0      		ldi r18,lo8(512)
 2583 029e 32E0      		ldi r19,hi8(512)
 2584 02a0 281B      		sub r18,r24
 2585 02a2 390B      		sbc r19,r25
 2586 02a4 8301      		movw r16,r6
 2587               	.LVL256:
 2588 02a6 2615      		cp r18,r6
 2589 02a8 3705      		cpc r19,r7
 2590 02aa 00F4      		brsh .L135
 2591               	.LVL257:
 2592 02ac 8901      		movw r16,r18
 2593               	.L135:
 2594               	.LSM213:
 2595 02ae 2E81      		ldd r18,Y+6
 2596 02b0 3F81      		ldd r19,Y+7
 2597               	.LVL258:
 2598 02b2 3170      		andi r19,hi8(511)
 2599 02b4 225D      		subi r18,lo8(-(46))
 2600 02b6 3F4F      		sbci r19,hi8(-(46))
 2601 02b8 8881      		ld r24,Y
 2602 02ba 9981      		ldd r25,Y+1
 2603 02bc 820F      		add r24,r18
 2604 02be 931F      		adc r25,r19
 2605 02c0 B201      		movw r22,r4
 2606 02c2 A801      		movw r20,r16
 2607 02c4 0E94 0000 		call mem_cpy
 2608               	.LSM214:
 2609 02c8 E881      		ld r30,Y
 2610 02ca F981      		ldd r31,Y+1
 2611 02cc 31E0      		ldi r19,lo8(1)
 2612 02ce 3483      		std Z+4,r19
 2613               	.LVL259:
 2614               	.L131:
 2615               	.LSM215:
 2616 02d0 400E      		add r4,r16
 2617 02d2 511E      		adc r5,r17
 2618 02d4 C801      		movw r24,r16
 2619 02d6 A0E0      		ldi r26,lo8(0)
 2620 02d8 B0E0      		ldi r27,hi8(0)
 2621               	.LVL260:
 2622 02da 2E81      		ldd r18,Y+6
 2623 02dc 3F81      		ldd r19,Y+7
 2624 02de 4885      		ldd r20,Y+8
 2625 02e0 5985      		ldd r21,Y+9
 2626 02e2 280F      		add r18,r24
 2627 02e4 391F      		adc r19,r25
 2628 02e6 4A1F      		adc r20,r26
 2629 02e8 5B1F      		adc r21,r27
 2630 02ea 2E83      		std Y+6,r18
 2631 02ec 3F83      		std Y+7,r19
 2632 02ee 4887      		std Y+8,r20
 2633 02f0 5987      		std Y+9,r21
 2634 02f2 F101      		movw r30,r2
 2635 02f4 8081      		ld r24,Z
 2636 02f6 9181      		ldd r25,Z+1
 2637 02f8 800F      		add r24,r16
 2638 02fa 911F      		adc r25,r17
 2639 02fc 9183      		std Z+1,r25
 2640 02fe 8083      		st Z,r24
 2641 0300 601A      		sub r6,r16
 2642 0302 710A      		sbc r7,r17
 2643               	.LVL261:
 2644               	.L116:
 2645               	.LSM216:
 2646 0304 6114      		cp r6,__zero_reg__
 2647 0306 7104      		cpc r7,__zero_reg__
 2648 0308 01F0      		breq .+2
 2649 030a 00C0      		rjmp .L136
 2650               	.LVL262:
 2651               	.L122:
 2652               	.LSM217:
 2653 030c 2E81      		ldd r18,Y+6
 2654 030e 3F81      		ldd r19,Y+7
 2655 0310 4885      		ldd r20,Y+8
 2656 0312 5985      		ldd r21,Y+9
 2657 0314 8A85      		ldd r24,Y+10
 2658 0316 9B85      		ldd r25,Y+11
 2659 0318 AC85      		ldd r26,Y+12
 2660 031a BD85      		ldd r27,Y+13
 2661 031c 8217      		cp r24,r18
 2662 031e 9307      		cpc r25,r19
 2663 0320 A407      		cpc r26,r20
 2664 0322 B507      		cpc r27,r21
 2665 0324 00F4      		brsh .L137
 2666 0326 2A87      		std Y+10,r18
 2667 0328 3B87      		std Y+11,r19
 2668 032a 4C87      		std Y+12,r20
 2669 032c 5D87      		std Y+13,r21
 2670               	.L137:
 2671               	.LSM218:
 2672 032e 8C81      		ldd r24,Y+4
 2673 0330 8062      		ori r24,lo8(32)
 2674 0332 8C83      		std Y+4,r24
 2675               	.LVL263:
 2676               	.L112:
 2677               	.LSM219:
 2678 0334 882D      		mov r24,r8
 2679               	/* epilogue start */
 2680 0336 DF91      		pop r29
 2681 0338 CF91      		pop r28
 2682               	.LVL264:
 2683 033a 1F91      		pop r17
 2684               	.LVL265:
 2685 033c 0F91      		pop r16
 2686               	.LVL266:
 2687 033e FF90      		pop r15
 2688 0340 EF90      		pop r14
 2689 0342 DF90      		pop r13
 2690 0344 CF90      		pop r12
 2691               	.LVL267:
 2692 0346 BF90      		pop r11
 2693 0348 AF90      		pop r10
 2694               	.LVL268:
 2695 034a 9F90      		pop r9
 2696               	.LVL269:
 2697 034c 8F90      		pop r8
 2698               	.LVL270:
 2699 034e 7F90      		pop r7
 2700 0350 6F90      		pop r6
 2701               	.LVL271:
 2702 0352 5F90      		pop r5
 2703 0354 4F90      		pop r4
 2704               	.LVL272:
 2705 0356 3F90      		pop r3
 2706 0358 2F90      		pop r2
 2707               	.LVL273:
 2708 035a 0895      		ret
 2709               	.LFE159:
 2711               		.section	.text.dir_next,"ax",@progbits
 2713               	dir_next:
 2714               	.LFB148:
 2715               	.LSM220:
 2716               	.LVL274:
 2717 0000 8F92      		push r8
 2718 0002 9F92      		push r9
 2719 0004 AF92      		push r10
 2720 0006 BF92      		push r11
 2721 0008 CF92      		push r12
 2722 000a DF92      		push r13
 2723 000c EF92      		push r14
 2724 000e FF92      		push r15
 2725 0010 0F93      		push r16
 2726 0012 1F93      		push r17
 2727 0014 CF93      		push r28
 2728 0016 DF93      		push r29
 2729               	/* prologue: function */
 2730               	/* frame size = 0 */
 2731 0018 EC01      		movw r28,r24
 2732 001a 8B01      		movw r16,r22
 2733               	.LSM221:
 2734 001c AC80      		ldd r10,Y+4
 2735 001e BD80      		ldd r11,Y+5
 2736               	.LVL275:
 2737 0020 0894      		sec
 2738 0022 A11C      		adc r10,__zero_reg__
 2739 0024 B11C      		adc r11,__zero_reg__
 2740               	.LSM222:
 2741 0026 A114      		cp r10,__zero_reg__
 2742 0028 B104      		cpc r11,__zero_reg__
 2743 002a 01F4      		brne .+2
 2744 002c 00C0      		rjmp .L143
 2745               	.LVL276:
 2746 002e 8E85      		ldd r24,Y+14
 2747 0030 9F85      		ldd r25,Y+15
 2748 0032 A889      		ldd r26,Y+16
 2749 0034 B989      		ldd r27,Y+17
 2750 0036 0097      		sbiw r24,0
 2751 0038 A105      		cpc r26,__zero_reg__
 2752 003a B105      		cpc r27,__zero_reg__
 2753 003c 01F4      		brne .+2
 2754 003e 00C0      		rjmp .L143
 2755               	.LSM223:
 2756 0040 2FE0      		ldi r18,lo8(15)
 2757 0042 822E      		mov r8,r18
 2758 0044 912C      		mov r9,__zero_reg__
 2759 0046 8A20      		and r8,r10
 2760 0048 9B20      		and r9,r11
 2761 004a 8114      		cp r8,__zero_reg__
 2762 004c 9104      		cpc r9,__zero_reg__
 2763 004e 01F0      		breq .+2
 2764 0050 00C0      		rjmp .L144
 2765               	.LSM224:
 2766 0052 0196      		adiw r24,1
 2767 0054 A11D      		adc r26,__zero_reg__
 2768 0056 B11D      		adc r27,__zero_reg__
 2769 0058 8E87      		std Y+14,r24
 2770 005a 9F87      		std Y+15,r25
 2771 005c A88B      		std Y+16,r26
 2772 005e B98B      		std Y+17,r27
 2773               	.LSM225:
 2774 0060 4A85      		ldd r20,Y+10
 2775 0062 5B85      		ldd r21,Y+11
 2776 0064 6C85      		ldd r22,Y+12
 2777 0066 7D85      		ldd r23,Y+13
 2778 0068 E881      		ld r30,Y
 2779 006a F981      		ldd r31,Y+1
 2780 006c 4115      		cp r20,__zero_reg__
 2781 006e 5105      		cpc r21,__zero_reg__
 2782 0070 6105      		cpc r22,__zero_reg__
 2783 0072 7105      		cpc r23,__zero_reg__
 2784 0074 01F4      		brne .L145
 2785               	.LSM226:
 2786 0076 8085      		ldd r24,Z+8
 2787 0078 9185      		ldd r25,Z+9
 2788 007a A816      		cp r10,r24
 2789 007c B906      		cpc r11,r25
 2790 007e 00F4      		brsh .+2
 2791 0080 00C0      		rjmp .L144
 2792 0082 00C0      		rjmp .L143
 2793               	.L145:
 2794               	.LSM227:
 2795 0084 8281      		ldd r24,Z+2
 2796 0086 90E0      		ldi r25,lo8(0)
 2797 0088 0197      		sbiw r24,1
 2798 008a 9501      		movw r18,r10
 2799 008c A4E0      		ldi r26,4
 2800 008e 3695      	1:	lsr r19
 2801 0090 2795      		ror r18
 2802 0092 AA95      		dec r26
 2803 0094 01F4      		brne 1b
 2804 0096 8223      		and r24,r18
 2805 0098 9323      		and r25,r19
 2806 009a 892B      		or r24,r25
 2807 009c 01F0      		breq .+2
 2808 009e 00C0      		rjmp .L144
 2809               	.LSM228:
 2810 00a0 CF01      		movw r24,r30
 2811 00a2 0E94 0000 		call get_fat
 2812 00a6 6B01      		movw r12,r22
 2813 00a8 7C01      		movw r14,r24
 2814               	.LVL277:
 2815               	.LSM229:
 2816 00aa 82E0      		ldi r24,lo8(2)
 2817 00ac C816      		cp r12,r24
 2818 00ae D104      		cpc r13,__zero_reg__
 2819 00b0 E104      		cpc r14,__zero_reg__
 2820 00b2 F104      		cpc r15,__zero_reg__
 2821 00b4 00F4      		brsh .+2
 2822 00b6 00C0      		rjmp .L146
 2823               	.LSM230:
 2824 00b8 EFEF      		ldi r30,lo8(-1)
 2825 00ba CE16      		cp r12,r30
 2826 00bc EFEF      		ldi r30,hi8(-1)
 2827 00be DE06      		cpc r13,r30
 2828 00c0 EFEF      		ldi r30,hlo8(-1)
 2829 00c2 EE06      		cpc r14,r30
 2830 00c4 EFEF      		ldi r30,hhi8(-1)
 2831 00c6 FE06      		cpc r15,r30
 2832 00c8 01F4      		brne .+2
 2833 00ca 00C0      		rjmp .L147
 2834               	.LSM231:
 2835 00cc E881      		ld r30,Y
 2836 00ce F981      		ldd r31,Y+1
 2837 00d0 8689      		ldd r24,Z+22
 2838 00d2 9789      		ldd r25,Z+23
 2839 00d4 A08D      		ldd r26,Z+24
 2840 00d6 B18D      		ldd r27,Z+25
 2841 00d8 C816      		cp r12,r24
 2842 00da D906      		cpc r13,r25
 2843 00dc EA06      		cpc r14,r26
 2844 00de FB06      		cpc r15,r27
 2845 00e0 00F4      		brsh .+2
 2846 00e2 00C0      		rjmp .L148
 2847               	.LBB4:
 2848               	.LSM232:
 2849 00e4 012B      		or r16,r17
 2850 00e6 01F4      		brne .+2
 2851 00e8 00C0      		rjmp .L143
 2852               	.LSM233:
 2853 00ea 4A85      		ldd r20,Y+10
 2854 00ec 5B85      		ldd r21,Y+11
 2855 00ee 6C85      		ldd r22,Y+12
 2856 00f0 7D85      		ldd r23,Y+13
 2857 00f2 CF01      		movw r24,r30
 2858 00f4 0E94 0000 		call create_chain
 2859 00f8 6B01      		movw r12,r22
 2860 00fa 7C01      		movw r14,r24
 2861               	.LSM234:
 2862 00fc 6115      		cp r22,__zero_reg__
 2863 00fe 7105      		cpc r23,__zero_reg__
 2864 0100 8105      		cpc r24,__zero_reg__
 2865 0102 9105      		cpc r25,__zero_reg__
 2866 0104 01F4      		brne .L149
 2867               	.LVL278:
 2868 0106 87E0      		ldi r24,lo8(7)
 2869 0108 00C0      		rjmp .L150
 2870               	.L149:
 2871               	.LSM235:
 2872 010a 6130      		cpi r22,lo8(1)
 2873 010c 7105      		cpc r23,__zero_reg__
 2874 010e 8105      		cpc r24,__zero_reg__
 2875 0110 9105      		cpc r25,__zero_reg__
 2876 0112 01F4      		brne .+2
 2877 0114 00C0      		rjmp .L146
 2878               	.LSM236:
 2879 0116 8FEF      		ldi r24,lo8(-1)
 2880 0118 C816      		cp r12,r24
 2881 011a 8FEF      		ldi r24,hi8(-1)
 2882 011c D806      		cpc r13,r24
 2883 011e 8FEF      		ldi r24,hlo8(-1)
 2884 0120 E806      		cpc r14,r24
 2885 0122 8FEF      		ldi r24,hhi8(-1)
 2886 0124 F806      		cpc r15,r24
 2887 0126 01F4      		brne .+2
 2888 0128 00C0      		rjmp .L147
 2889               	.LVL279:
 2890               	.LSM237:
 2891 012a 8881      		ld r24,Y
 2892 012c 9981      		ldd r25,Y+1
 2893 012e 40E0      		ldi r20,lo8(0)
 2894 0130 50E0      		ldi r21,hi8(0)
 2895 0132 60E0      		ldi r22,hlo8(0)
 2896 0134 70E0      		ldi r23,hhi8(0)
 2897 0136 0E94 0000 		call move_window
 2898 013a 8823      		tst r24
 2899 013c 01F0      		breq .+2
 2900 013e 00C0      		rjmp .L147
 2901               	.LSM238:
 2902 0140 8881      		ld r24,Y
 2903 0142 9981      		ldd r25,Y+1
 2904 0144 8E96      		adiw r24,46
 2905 0146 60E0      		ldi r22,lo8(0)
 2906 0148 70E0      		ldi r23,hi8(0)
 2907 014a 40E0      		ldi r20,lo8(512)
 2908 014c 52E0      		ldi r21,hi8(512)
 2909 014e 0E94 0000 		call mem_set
 2910               	.LSM239:
 2911 0152 0881      		ld r16,Y
 2912 0154 1981      		ldd r17,Y+1
 2913               	.LVL280:
 2914 0156 C801      		movw r24,r16
 2915 0158 B701      		movw r22,r14
 2916 015a A601      		movw r20,r12
 2917 015c 0E94 0000 		call clust2sect
 2918 0160 F801      		movw r30,r16
 2919 0162 62A7      		std Z+42,r22
 2920 0164 73A7      		std Z+43,r23
 2921 0166 84A7      		std Z+44,r24
 2922 0168 95A7      		std Z+45,r25
 2923 016a 00E0      		ldi r16,lo8(0)
 2924               	.LVL281:
 2925               	.LSM240:
 2926 016c 11E0      		ldi r17,lo8(1)
 2927 016e 00C0      		rjmp .L151
 2928               	.L152:
 2929 0170 1483      		std Z+4,r17
 2930               	.LSM241:
 2931 0172 8881      		ld r24,Y
 2932 0174 9981      		ldd r25,Y+1
 2933 0176 40E0      		ldi r20,lo8(0)
 2934 0178 50E0      		ldi r21,hi8(0)
 2935 017a 60E0      		ldi r22,hlo8(0)
 2936 017c 70E0      		ldi r23,hhi8(0)
 2937 017e 0E94 0000 		call move_window
 2938 0182 8823      		tst r24
 2939 0184 01F0      		breq .+2
 2940 0186 00C0      		rjmp .L147
 2941               	.LSM242:
 2942 0188 E881      		ld r30,Y
 2943 018a F981      		ldd r31,Y+1
 2944 018c 82A5      		ldd r24,Z+42
 2945 018e 93A5      		ldd r25,Z+43
 2946 0190 A4A5      		ldd r26,Z+44
 2947 0192 B5A5      		ldd r27,Z+45
 2948 0194 0196      		adiw r24,1
 2949 0196 A11D      		adc r26,__zero_reg__
 2950 0198 B11D      		adc r27,__zero_reg__
 2951 019a 82A7      		std Z+42,r24
 2952 019c 93A7      		std Z+43,r25
 2953 019e A4A7      		std Z+44,r26
 2954 01a0 B5A7      		std Z+45,r27
 2955               	.LSM243:
 2956 01a2 0F5F      		subi r16,lo8(-(1))
 2957               	.L151:
 2958 01a4 E881      		ld r30,Y
 2959 01a6 F981      		ldd r31,Y+1
 2960 01a8 8281      		ldd r24,Z+2
 2961 01aa 0817      		cp r16,r24
 2962 01ac 00F0      		brlo .L152
 2963               	.LSM244:
 2964 01ae 82A5      		ldd r24,Z+42
 2965 01b0 93A5      		ldd r25,Z+43
 2966 01b2 A4A5      		ldd r26,Z+44
 2967 01b4 B5A5      		ldd r27,Z+45
 2968 01b6 801B      		sub r24,r16
 2969 01b8 9109      		sbc r25,__zero_reg__
 2970 01ba A109      		sbc r26,__zero_reg__
 2971 01bc B109      		sbc r27,__zero_reg__
 2972 01be 82A7      		std Z+42,r24
 2973 01c0 93A7      		std Z+43,r25
 2974 01c2 A4A7      		std Z+44,r26
 2975 01c4 B5A7      		std Z+45,r27
 2976               	.LVL282:
 2977               	.L148:
 2978               	.LBE4:
 2979               	.LSM245:
 2980 01c6 CA86      		std Y+10,r12
 2981 01c8 DB86      		std Y+11,r13
 2982 01ca EC86      		std Y+12,r14
 2983 01cc FD86      		std Y+13,r15
 2984               	.LSM246:
 2985 01ce 8881      		ld r24,Y
 2986 01d0 9981      		ldd r25,Y+1
 2987 01d2 B701      		movw r22,r14
 2988 01d4 A601      		movw r20,r12
 2989 01d6 0E94 0000 		call clust2sect
 2990 01da 6E87      		std Y+14,r22
 2991 01dc 7F87      		std Y+15,r23
 2992 01de 888B      		std Y+16,r24
 2993 01e0 998B      		std Y+17,r25
 2994               	.LVL283:
 2995               	.L144:
 2996               	.LSM247:
 2997 01e2 BD82      		std Y+5,r11
 2998 01e4 AC82      		std Y+4,r10
 2999               	.LSM248:
 3000 01e6 8881      		ld r24,Y
 3001 01e8 9981      		ldd r25,Y+1
 3002 01ea 8E96      		adiw r24,46
 3003 01ec 25E0      		ldi r18,5
 3004 01ee 880C      	1:	lsl r8
 3005 01f0 991C      		rol r9
 3006 01f2 2A95      		dec r18
 3007 01f4 01F4      		brne 1b
 3008 01f6 880D      		add r24,r8
 3009 01f8 991D      		adc r25,r9
 3010 01fa 9B8B      		std Y+19,r25
 3011 01fc 8A8B      		std Y+18,r24
 3012 01fe 80E0      		ldi r24,lo8(0)
 3013 0200 00C0      		rjmp .L150
 3014               	.LVL284:
 3015               	.L143:
 3016               	.LSM249:
 3017 0202 84E0      		ldi r24,lo8(4)
 3018 0204 00C0      		rjmp .L150
 3019               	.LVL285:
 3020               	.L146:
 3021 0206 82E0      		ldi r24,lo8(2)
 3022 0208 00C0      		rjmp .L150
 3023               	.LVL286:
 3024               	.L147:
 3025 020a 81E0      		ldi r24,lo8(1)
 3026               	.LVL287:
 3027               	.L150:
 3028               	/* epilogue start */
 3029               	.LSM250:
 3030 020c DF91      		pop r29
 3031 020e CF91      		pop r28
 3032               	.LVL288:
 3033 0210 1F91      		pop r17
 3034 0212 0F91      		pop r16
 3035               	.LVL289:
 3036 0214 FF90      		pop r15
 3037 0216 EF90      		pop r14
 3038 0218 DF90      		pop r13
 3039 021a CF90      		pop r12
 3040               	.LVL290:
 3041 021c BF90      		pop r11
 3042 021e AF90      		pop r10
 3043               	.LVL291:
 3044 0220 9F90      		pop r9
 3045 0222 8F90      		pop r8
 3046 0224 0895      		ret
 3047               	.LFE148:
 3049               		.section	.text.f_read,"ax",@progbits
 3050               	.global	f_read
 3052               	f_read:
 3053               	.LFB158:
 3054               	.LSM251:
 3055               	.LVL292:
 3056 0000 2F92      		push r2
 3057 0002 3F92      		push r3
 3058 0004 4F92      		push r4
 3059 0006 5F92      		push r5
 3060 0008 6F92      		push r6
 3061 000a 7F92      		push r7
 3062 000c 8F92      		push r8
 3063 000e 9F92      		push r9
 3064 0010 AF92      		push r10
 3065 0012 BF92      		push r11
 3066 0014 CF92      		push r12
 3067 0016 DF92      		push r13
 3068 0018 EF92      		push r14
 3069 001a FF92      		push r15
 3070 001c 0F93      		push r16
 3071 001e 1F93      		push r17
 3072 0020 CF93      		push r28
 3073 0022 DF93      		push r29
 3074               	/* prologue: function */
 3075               	/* frame size = 0 */
 3076 0024 EC01      		movw r28,r24
 3077 0026 162F      		mov r17,r22
 3078 0028 072F      		mov r16,r23
 3079               	.LVL293:
 3080 002a 3A01      		movw r6,r20
 3081 002c 1901      		movw r2,r18
 3082               	.LSM252:
 3083 002e F901      		movw r30,r18
 3084 0030 1182      		std Z+1,__zero_reg__
 3085 0032 1082      		st Z,__zero_reg__
 3086               	.LSM253:
 3087 0034 6A81      		ldd r22,Y+2
 3088 0036 7B81      		ldd r23,Y+3
 3089               	.LVL294:
 3090 0038 8881      		ld r24,Y
 3091 003a 9981      		ldd r25,Y+1
 3092               	.LVL295:
 3093 003c 0E94 0000 		call validate
 3094               	.LVL296:
 3095 0040 882E      		mov r8,r24
 3096               	.LVL297:
 3097               	.LSM254:
 3098 0042 8823      		tst r24
 3099 0044 01F0      		breq .+2
 3100 0046 00C0      		rjmp .L155
 3101               	.LVL298:
 3102               	.LSM255:
 3103 0048 8C81      		ldd r24,Y+4
 3104               	.LVL299:
 3105 004a 87FD      		sbrc r24,7
 3106 004c 00C0      		rjmp .L176
 3107               	.L156:
 3108               	.LSM256:
 3109 004e 80FD      		sbrc r24,0
 3110 0050 00C0      		rjmp .L157
 3111 0052 07E0      		ldi r16,lo8(7)
 3112 0054 802E      		mov r8,r16
 3113               	.LVL300:
 3114 0056 00C0      		rjmp .L155
 3115               	.LVL301:
 3116               	.L157:
 3117               	.LSM257:
 3118 0058 2A85      		ldd r18,Y+10
 3119 005a 3B85      		ldd r19,Y+11
 3120 005c 4C85      		ldd r20,Y+12
 3121 005e 5D85      		ldd r21,Y+13
 3122               	.LVL302:
 3123 0060 8E81      		ldd r24,Y+6
 3124 0062 9F81      		ldd r25,Y+7
 3125 0064 A885      		ldd r26,Y+8
 3126 0066 B985      		ldd r27,Y+9
 3127 0068 281B      		sub r18,r24
 3128 006a 390B      		sbc r19,r25
 3129 006c 4A0B      		sbc r20,r26
 3130 006e 5B0B      		sbc r21,r27
 3131               	.LSM258:
 3132 0070 C301      		movw r24,r6
 3133 0072 A0E0      		ldi r26,lo8(0)
 3134 0074 B0E0      		ldi r27,hi8(0)
 3135               	.LVL303:
 3136 0076 2817      		cp r18,r24
 3137 0078 3907      		cpc r19,r25
 3138 007a 4A07      		cpc r20,r26
 3139 007c 5B07      		cpc r21,r27
 3140 007e 00F4      		brsh .L158
 3141               	.LVL304:
 3142 0080 3901      		movw r6,r18
 3143               	.LVL305:
 3144               	.L158:
 3145               	.LSM259:
 3146 0082 812F      		mov r24,r17
 3147               	.LVL306:
 3148 0084 902F      		mov r25,r16
 3149               	.LVL307:
 3150 0086 9C01      		movw r18,r24
 3151               	.LVL308:
 3152 0088 2901      		movw r4,r18
 3153               	.LVL309:
 3154 008a 00C0      		rjmp .L159
 3155               	.LVL310:
 3156               	.L174:
 3157               	.LSM260:
 3158 008c 2E81      		ldd r18,Y+6
 3159 008e 3F81      		ldd r19,Y+7
 3160 0090 4885      		ldd r20,Y+8
 3161 0092 5985      		ldd r21,Y+9
 3162 0094 DA01      		movw r26,r20
 3163 0096 C901      		movw r24,r18
 3164 0098 9170      		andi r25,hi8(511)
 3165 009a A070      		andi r26,hlo8(511)
 3166 009c B070      		andi r27,hhi8(511)
 3167 009e 0097      		sbiw r24,0
 3168 00a0 A105      		cpc r26,__zero_reg__
 3169 00a2 B105      		cpc r27,__zero_reg__
 3170 00a4 01F0      		breq .+2
 3171 00a6 00C0      		rjmp .L160
 3172               	.LSM261:
 3173 00a8 E881      		ld r30,Y
 3174 00aa F981      		ldd r31,Y+1
 3175 00ac DA01      		movw r26,r20
 3176 00ae C901      		movw r24,r18
 3177 00b0 19E0      		ldi r17,9
 3178 00b2 B695      	1:	lsr r27
 3179 00b4 A795      		ror r26
 3180 00b6 9795      		ror r25
 3181 00b8 8795      		ror r24
 3182 00ba 1A95      		dec r17
 3183 00bc 01F4      		brne 1b
 3184               	.LVL311:
 3185 00be 9280      		ldd r9,Z+2
 3186 00c0 9A94      		dec r9
 3187 00c2 9822      		and r9,r24
 3188               	.LSM262:
 3189 00c4 01F4      		brne .L161
 3190               	.LSM263:
 3191 00c6 2115      		cp r18,__zero_reg__
 3192 00c8 3105      		cpc r19,__zero_reg__
 3193 00ca 4105      		cpc r20,__zero_reg__
 3194 00cc 5105      		cpc r21,__zero_reg__
 3195 00ce 01F4      		brne .L162
 3196               	.LSM264:
 3197 00d0 6E85      		ldd r22,Y+14
 3198 00d2 7F85      		ldd r23,Y+15
 3199 00d4 8889      		ldd r24,Y+16
 3200 00d6 9989      		ldd r25,Y+17
 3201               	.LVL312:
 3202 00d8 00C0      		rjmp .L163
 3203               	.LVL313:
 3204               	.L162:
 3205               	.LSM265:
 3206 00da 4A89      		ldd r20,Y+18
 3207 00dc 5B89      		ldd r21,Y+19
 3208 00de 6C89      		ldd r22,Y+20
 3209 00e0 7D89      		ldd r23,Y+21
 3210 00e2 CF01      		movw r24,r30
 3211 00e4 0E94 0000 		call get_fat
 3212               	.LVL314:
 3213               	.L163:
 3214               	.LSM266:
 3215 00e8 6230      		cpi r22,lo8(2)
 3216 00ea 7105      		cpc r23,__zero_reg__
 3217 00ec 8105      		cpc r24,__zero_reg__
 3218 00ee 9105      		cpc r25,__zero_reg__
 3219 00f0 00F4      		brsh .L164
 3220               	.LVL315:
 3221               	.L178:
 3222 00f2 8C81      		ldd r24,Y+4
 3223 00f4 8068      		ori r24,lo8(-128)
 3224 00f6 8C83      		std Y+4,r24
 3225               	.LVL316:
 3226               	.L176:
 3227 00f8 E2E0      		ldi r30,lo8(2)
 3228 00fa 8E2E      		mov r8,r30
 3229 00fc 00C0      		rjmp .L155
 3230               	.LVL317:
 3231               	.L164:
 3232               	.LSM267:
 3233 00fe 6F3F      		cpi r22,lo8(-1)
 3234 0100 FFEF      		ldi r31,hi8(-1)
 3235 0102 7F07      		cpc r23,r31
 3236 0104 FFEF      		ldi r31,hlo8(-1)
 3237 0106 8F07      		cpc r24,r31
 3238 0108 FFEF      		ldi r31,hhi8(-1)
 3239 010a 9F07      		cpc r25,r31
 3240 010c 01F4      		brne .+2
 3241 010e 00C0      		rjmp .L177
 3242               	.L165:
 3243               	.LSM268:
 3244 0110 6A8B      		std Y+18,r22
 3245 0112 7B8B      		std Y+19,r23
 3246 0114 8C8B      		std Y+20,r24
 3247 0116 9D8B      		std Y+21,r25
 3248               	.L161:
 3249               	.LSM269:
 3250 0118 0881      		ld r16,Y
 3251 011a 1981      		ldd r17,Y+1
 3252               	.LVL318:
 3253 011c 4A89      		ldd r20,Y+18
 3254 011e 5B89      		ldd r21,Y+19
 3255 0120 6C89      		ldd r22,Y+20
 3256 0122 7D89      		ldd r23,Y+21
 3257 0124 C801      		movw r24,r16
 3258 0126 0E94 0000 		call clust2sect
 3259               	.LVL319:
 3260               	.LSM270:
 3261 012a 6115      		cp r22,__zero_reg__
 3262 012c 7105      		cpc r23,__zero_reg__
 3263 012e 8105      		cpc r24,__zero_reg__
 3264 0130 9105      		cpc r25,__zero_reg__
 3265 0132 01F0      		breq .L178
 3266               	.LVL320:
 3267               	.L166:
 3268               	.LSM271:
 3269 0134 6B01      		movw r12,r22
 3270 0136 7C01      		movw r14,r24
 3271 0138 C90C      		add r12,r9
 3272 013a D11C      		adc r13,__zero_reg__
 3273 013c E11C      		adc r14,__zero_reg__
 3274 013e F11C      		adc r15,__zero_reg__
 3275               	.LVL321:
 3276               	.LSM272:
 3277 0140 5301      		movw r10,r6
 3278 0142 AB2C      		mov r10,r11
 3279 0144 BB24      		clr r11
 3280 0146 A694      		lsr r10
 3281               	.LSM273:
 3282 0148 A114      		cp r10,__zero_reg__
 3283 014a B104      		cpc r11,__zero_reg__
 3284 014c 01F4      		brne .+2
 3285 014e 00C0      		rjmp .L167
 3286               	.LSM274:
 3287 0150 F801      		movw r30,r16
 3288 0152 2281      		ldd r18,Z+2
 3289 0154 492D      		mov r20,r9
 3290 0156 50E0      		ldi r21,lo8(0)
 3291               	.LVL322:
 3292 0158 C501      		movw r24,r10
 3293 015a 840F      		add r24,r20
 3294 015c 951F      		adc r25,r21
 3295 015e 30E0      		ldi r19,lo8(0)
 3296 0160 2817      		cp r18,r24
 3297 0162 3907      		cpc r19,r25
 3298 0164 00F4      		brsh .L168
 3299               	.LVL323:
 3300               	.LSM275:
 3301 0166 5901      		movw r10,r18
 3302 0168 A41A      		sub r10,r20
 3303 016a B50A      		sbc r11,r21
 3304               	.L168:
 3305               	.LSM276:
 3306 016c F801      		movw r30,r16
 3307 016e 8181      		ldd r24,Z+1
 3308 0170 B201      		movw r22,r4
 3309 0172 A701      		movw r20,r14
 3310 0174 9601      		movw r18,r12
 3311 0176 0A2D      		mov r16,r10
 3312 0178 0E94 0000 		call disk_read
 3313               	.LVL324:
 3314 017c 8823      		tst r24
 3315 017e 01F4      		brne .L177
 3316               	.L169:
 3317               	.LSM277:
 3318 0180 E881      		ld r30,Y
 3319 0182 F981      		ldd r31,Y+1
 3320 0184 8481      		ldd r24,Z+4
 3321 0186 8823      		tst r24
 3322 0188 01F0      		breq .L170
 3323 018a 22A5      		ldd r18,Z+42
 3324 018c 33A5      		ldd r19,Z+43
 3325 018e 44A5      		ldd r20,Z+44
 3326 0190 55A5      		ldd r21,Z+45
 3327 0192 2C19      		sub r18,r12
 3328 0194 3D09      		sbc r19,r13
 3329 0196 4E09      		sbc r20,r14
 3330 0198 5F09      		sbc r21,r15
 3331 019a C501      		movw r24,r10
 3332 019c A0E0      		ldi r26,lo8(0)
 3333 019e B0E0      		ldi r27,hi8(0)
 3334               	.LVL325:
 3335 01a0 2817      		cp r18,r24
 3336 01a2 3907      		cpc r19,r25
 3337 01a4 4A07      		cpc r20,r26
 3338 01a6 5B07      		cpc r21,r27
 3339 01a8 00F4      		brsh .L170
 3340               	.LVL326:
 3341               	.LSM278:
 3342 01aa 69E0      		ldi r22,9
 3343 01ac 220F      	1:	lsl r18
 3344 01ae 331F      		rol r19
 3345 01b0 441F      		rol r20
 3346 01b2 551F      		rol r21
 3347 01b4 6A95      		dec r22
 3348 01b6 01F4      		brne 1b
 3349 01b8 C201      		movw r24,r4
 3350               	.LVL327:
 3351 01ba 820F      		add r24,r18
 3352 01bc 931F      		adc r25,r19
 3353 01be BE96      		adiw r30,46
 3354 01c0 BF01      		movw r22,r30
 3355 01c2 40E0      		ldi r20,lo8(512)
 3356 01c4 52E0      		ldi r21,hi8(512)
 3357 01c6 0E94 0000 		call mem_cpy
 3358               	.LVL328:
 3359               	.L170:
 3360               	.LSM279:
 3361 01ca 8501      		movw r16,r10
 3362               	.LVL329:
 3363 01cc 102F      		mov r17,r16
 3364 01ce 0027      		clr r16
 3365 01d0 110F      		lsl r17
 3366 01d2 00C0      		rjmp .L171
 3367               	.LVL330:
 3368               	.L167:
 3369               	.LSM280:
 3370 01d4 CE8A      		std Y+22,r12
 3371 01d6 DF8A      		std Y+23,r13
 3372 01d8 E88E      		std Y+24,r14
 3373 01da F98E      		std Y+25,r15
 3374               	.LVL331:
 3375               	.L160:
 3376               	.LSM281:
 3377 01dc EE80      		ldd r14,Y+6
 3378 01de FF80      		ldd r15,Y+7
 3379 01e0 0885      		ldd r16,Y+8
 3380 01e2 1985      		ldd r17,Y+9
 3381               	.LSM282:
 3382 01e4 4E89      		ldd r20,Y+22
 3383 01e6 5F89      		ldd r21,Y+23
 3384 01e8 688D      		ldd r22,Y+24
 3385 01ea 798D      		ldd r23,Y+25
 3386 01ec 8881      		ld r24,Y
 3387 01ee 9981      		ldd r25,Y+1
 3388 01f0 0E94 0000 		call move_window
 3389               	.LVL332:
 3390 01f4 8823      		tst r24
 3391 01f6 01F0      		breq .L172
 3392               	.LVL333:
 3393               	.L177:
 3394               	.LSM283:
 3395 01f8 8C81      		ldd r24,Y+4
 3396 01fa 8068      		ori r24,lo8(-128)
 3397 01fc 8C83      		std Y+4,r24
 3398 01fe 8824      		clr r8
 3399 0200 8394      		inc r8
 3400 0202 00C0      		rjmp .L155
 3401               	.LVL334:
 3402               	.L172:
 3403               	.LSM284:
 3404 0204 C701      		movw r24,r14
 3405 0206 9170      		andi r25,hi8(511)
 3406 0208 20E0      		ldi r18,lo8(512)
 3407 020a 32E0      		ldi r19,hi8(512)
 3408 020c 281B      		sub r18,r24
 3409 020e 390B      		sbc r19,r25
 3410 0210 8301      		movw r16,r6
 3411               	.LVL335:
 3412 0212 2615      		cp r18,r6
 3413 0214 3705      		cpc r19,r7
 3414 0216 00F4      		brsh .L173
 3415               	.LVL336:
 3416 0218 8901      		movw r16,r18
 3417               	.L173:
 3418               	.LSM285:
 3419 021a 8E81      		ldd r24,Y+6
 3420 021c 9F81      		ldd r25,Y+7
 3421 021e 9170      		andi r25,hi8(511)
 3422 0220 8E96      		adiw r24,46
 3423 0222 6881      		ld r22,Y
 3424 0224 7981      		ldd r23,Y+1
 3425 0226 680F      		add r22,r24
 3426 0228 791F      		adc r23,r25
 3427 022a C201      		movw r24,r4
 3428 022c A801      		movw r20,r16
 3429 022e 0E94 0000 		call mem_cpy
 3430               	.LVL337:
 3431               	.L171:
 3432               	.LSM286:
 3433 0232 400E      		add r4,r16
 3434 0234 511E      		adc r5,r17
 3435 0236 C801      		movw r24,r16
 3436 0238 A0E0      		ldi r26,lo8(0)
 3437 023a B0E0      		ldi r27,hi8(0)
 3438               	.LVL338:
 3439 023c 2E81      		ldd r18,Y+6
 3440 023e 3F81      		ldd r19,Y+7
 3441 0240 4885      		ldd r20,Y+8
 3442 0242 5985      		ldd r21,Y+9
 3443 0244 280F      		add r18,r24
 3444 0246 391F      		adc r19,r25
 3445 0248 4A1F      		adc r20,r26
 3446 024a 5B1F      		adc r21,r27
 3447 024c 2E83      		std Y+6,r18
 3448 024e 3F83      		std Y+7,r19
 3449 0250 4887      		std Y+8,r20
 3450 0252 5987      		std Y+9,r21
 3451 0254 F101      		movw r30,r2
 3452 0256 8081      		ld r24,Z
 3453 0258 9181      		ldd r25,Z+1
 3454 025a 800F      		add r24,r16
 3455 025c 911F      		adc r25,r17
 3456 025e 9183      		std Z+1,r25
 3457 0260 8083      		st Z,r24
 3458 0262 601A      		sub r6,r16
 3459 0264 710A      		sbc r7,r17
 3460               	.LVL339:
 3461               	.L159:
 3462               	.LSM287:
 3463 0266 6114      		cp r6,__zero_reg__
 3464 0268 7104      		cpc r7,__zero_reg__
 3465 026a 01F0      		breq .+2
 3466 026c 00C0      		rjmp .L174
 3467               	.LVL340:
 3468               	.L155:
 3469               	.LSM288:
 3470 026e 882D      		mov r24,r8
 3471               	/* epilogue start */
 3472 0270 DF91      		pop r29
 3473 0272 CF91      		pop r28
 3474               	.LVL341:
 3475 0274 1F91      		pop r17
 3476               	.LVL342:
 3477 0276 0F91      		pop r16
 3478               	.LVL343:
 3479 0278 FF90      		pop r15
 3480 027a EF90      		pop r14
 3481 027c DF90      		pop r13
 3482 027e CF90      		pop r12
 3483               	.LVL344:
 3484 0280 BF90      		pop r11
 3485 0282 AF90      		pop r10
 3486               	.LVL345:
 3487 0284 9F90      		pop r9
 3488               	.LVL346:
 3489 0286 8F90      		pop r8
 3490               	.LVL347:
 3491 0288 7F90      		pop r7
 3492 028a 6F90      		pop r6
 3493               	.LVL348:
 3494 028c 5F90      		pop r5
 3495 028e 4F90      		pop r4
 3496               	.LVL349:
 3497 0290 3F90      		pop r3
 3498 0292 2F90      		pop r2
 3499               	.LVL350:
 3500 0294 0895      		ret
 3501               	.LFE158:
 3503               		.section	.text.check_fs,"ax",@progbits
 3505               	check_fs:
 3506               	.LFB153:
 3507               	.LSM289:
 3508               	.LVL351:
 3509 0000 0F93      		push r16
 3510 0002 CF93      		push r28
 3511 0004 DF93      		push r29
 3512               	/* prologue: function */
 3513               	/* frame size = 0 */
 3514 0006 EC01      		movw r28,r24
 3515 0008 9A01      		movw r18,r20
 3516 000a AB01      		movw r20,r22
 3517               	.LSM290:
 3518 000c BC01      		movw r22,r24
 3519 000e 625D      		subi r22,lo8(-(46))
 3520 0010 7F4F      		sbci r23,hi8(-(46))
 3521 0012 8981      		ldd r24,Y+1
 3522               	.LVL352:
 3523 0014 01E0      		ldi r16,lo8(1)
 3524 0016 0E94 0000 		call disk_read
 3525               	.LVL353:
 3526 001a 8823      		tst r24
 3527 001c 01F0      		breq .L180
 3528 001e 23E0      		ldi r18,lo8(3)
 3529 0020 00C0      		rjmp .L181
 3530               	.L180:
 3531               	.LSM291:
 3532 0022 C45D      		subi r28,lo8(-(556))
 3533 0024 DD4F      		sbci r29,hi8(-(556))
 3534 0026 8881      		ld r24,Y
 3535 0028 9981      		ldd r25,Y+1
 3536 002a CC52      		subi r28,lo8(-(-556))
 3537 002c D240      		sbci r29,hi8(-(-556))
 3538 002e 8555      		subi r24,lo8(-21931)
 3539 0030 9A4A      		sbci r25,hi8(-21931)
 3540 0032 01F0      		breq .L182
 3541 0034 22E0      		ldi r18,lo8(2)
 3542 0036 00C0      		rjmp .L181
 3543               	.L182:
 3544               	.LSM292:
 3545 0038 CC59      		subi r28,lo8(-(100))
 3546 003a DF4F      		sbci r29,hi8(-(100))
 3547 003c 8881      		ld r24,Y
 3548 003e 9981      		ldd r25,Y+1
 3549 0040 AA81      		ldd r26,Y+2
 3550 0042 BB81      		ldd r27,Y+3
 3551 0044 C456      		subi r28,lo8(-(-100))
 3552 0046 D040      		sbci r29,hi8(-(-100))
 3553 0048 B070      		andi r27,hhi8(16777215)
 3554 004a 8654      		subi r24,lo8(5521734)
 3555 004c 9144      		sbci r25,hi8(5521734)
 3556 004e A445      		sbci r26,hlo8(5521734)
 3557 0050 B040      		sbci r27,hhi8(5521734)
 3558 0052 01F4      		brne .L183
 3559 0054 20E0      		ldi r18,lo8(0)
 3560 0056 00C0      		rjmp .L181
 3561               	.L183:
 3562 0058 20E0      		ldi r18,lo8(0)
 3563 005a C058      		subi r28,lo8(-(128))
 3564 005c DF4F      		sbci r29,hi8(-(128))
 3565 005e 8881      		ld r24,Y
 3566 0060 9981      		ldd r25,Y+1
 3567 0062 AA81      		ldd r26,Y+2
 3568 0064 BB81      		ldd r27,Y+3
 3569 0066 B070      		andi r27,hhi8(16777215)
 3570 0068 8654      		subi r24,lo8(5521734)
 3571 006a 9144      		sbci r25,hi8(5521734)
 3572 006c A445      		sbci r26,hlo8(5521734)
 3573 006e B040      		sbci r27,hhi8(5521734)
 3574 0070 01F0      		breq .L181
 3575 0072 21E0      		ldi r18,lo8(1)
 3576               	.L181:
 3577               	.LSM293:
 3578 0074 822F      		mov r24,r18
 3579               	/* epilogue start */
 3580 0076 DF91      		pop r29
 3581 0078 CF91      		pop r28
 3582               	.LVL354:
 3583 007a 0F91      		pop r16
 3584 007c 0895      		ret
 3585               	.LFE153:
 3587               		.section	.text.f_sync,"ax",@progbits
 3588               	.global	f_sync
 3590               	f_sync:
 3591               	.LFB160:
 3592               	.LSM294:
 3593               	.LVL355:
 3594 0000 0F93      		push r16
 3595 0002 1F93      		push r17
 3596 0004 CF93      		push r28
 3597 0006 DF93      		push r29
 3598               	/* prologue: function */
 3599               	/* frame size = 0 */
 3600 0008 EC01      		movw r28,r24
 3601               	.LSM295:
 3602 000a 6A81      		ldd r22,Y+2
 3603 000c 7B81      		ldd r23,Y+3
 3604 000e 8881      		ld r24,Y
 3605 0010 9981      		ldd r25,Y+1
 3606               	.LVL356:
 3607 0012 0E94 0000 		call validate
 3608 0016 982F      		mov r25,r24
 3609               	.LVL357:
 3610               	.LSM296:
 3611 0018 8823      		tst r24
 3612 001a 01F0      		breq .+2
 3613 001c 00C0      		rjmp .L187
 3614               	.LVL358:
 3615               	.LSM297:
 3616 001e 8C81      		ldd r24,Y+4
 3617               	.LVL359:
 3618 0020 85FF      		sbrs r24,5
 3619 0022 00C0      		rjmp .L187
 3620               	.LSM298:
 3621 0024 4A8D      		ldd r20,Y+26
 3622 0026 5B8D      		ldd r21,Y+27
 3623 0028 6C8D      		ldd r22,Y+28
 3624 002a 7D8D      		ldd r23,Y+29
 3625 002c 8881      		ld r24,Y
 3626 002e 9981      		ldd r25,Y+1
 3627 0030 0E94 0000 		call move_window
 3628               	.LVL360:
 3629 0034 982F      		mov r25,r24
 3630               	.LVL361:
 3631               	.LSM299:
 3632 0036 8823      		tst r24
 3633 0038 01F0      		breq .+2
 3634 003a 00C0      		rjmp .L187
 3635               	.LVL362:
 3636               	.LSM300:
 3637 003c 0E8D      		ldd r16,Y+30
 3638 003e 1F8D      		ldd r17,Y+31
 3639               	.LVL363:
 3640               	.LSM301:
 3641 0040 F801      		movw r30,r16
 3642 0042 8385      		ldd r24,Z+11
 3643               	.LVL364:
 3644 0044 8062      		ori r24,lo8(32)
 3645 0046 8387      		std Z+11,r24
 3646               	.LSM302:
 3647 0048 8A85      		ldd r24,Y+10
 3648 004a 9B85      		ldd r25,Y+11
 3649 004c AC85      		ldd r26,Y+12
 3650 004e BD85      		ldd r27,Y+13
 3651 0050 848F      		std Z+28,r24
 3652 0052 958F      		std Z+29,r25
 3653 0054 A68F      		std Z+30,r26
 3654 0056 B78F      		std Z+31,r27
 3655               	.LSM303:
 3656 0058 8E85      		ldd r24,Y+14
 3657 005a 9F85      		ldd r25,Y+15
 3658 005c 938F      		std Z+27,r25
 3659 005e 828F      		std Z+26,r24
 3660 0060 8E85      		ldd r24,Y+14
 3661 0062 9F85      		ldd r25,Y+15
 3662 0064 A889      		ldd r26,Y+16
 3663 0066 B989      		ldd r27,Y+17
 3664 0068 CD01      		movw r24,r26
 3665 006a AA27      		clr r26
 3666 006c BB27      		clr r27
 3667 006e 958B      		std Z+21,r25
 3668 0070 848B      		std Z+20,r24
 3669               	.LSM304:
 3670 0072 0E94 0000 		call get_fattime
 3671               	.LVL365:
 3672               	.LSM305:
 3673 0076 F801      		movw r30,r16
 3674 0078 668B      		std Z+22,r22
 3675 007a 778B      		std Z+23,r23
 3676 007c 808F      		std Z+24,r24
 3677 007e 918F      		std Z+25,r25
 3678               	.LVL366:
 3679               	.LSM306:
 3680 0080 8C81      		ldd r24,Y+4
 3681 0082 8F7D      		andi r24,lo8(-33)
 3682 0084 8C83      		std Y+4,r24
 3683               	.LSM307:
 3684 0086 E881      		ld r30,Y
 3685 0088 F981      		ldd r31,Y+1
 3686 008a 81E0      		ldi r24,lo8(1)
 3687 008c 8483      		std Z+4,r24
 3688               	.LSM308:
 3689 008e 0990      		ld __tmp_reg__,Y+
 3690 0090 D881      		ld r29,Y
 3691 0092 C02D      		mov r28,__tmp_reg__
 3692               	.LVL367:
 3693               	.LBB7:
 3694               	.LSM309:
 3695 0094 CE01      		movw r24,r28
 3696 0096 40E0      		ldi r20,lo8(0)
 3697 0098 50E0      		ldi r21,hi8(0)
 3698 009a 60E0      		ldi r22,hlo8(0)
 3699 009c 70E0      		ldi r23,hhi8(0)
 3700 009e 0E94 0000 		call move_window
 3701               	.LVL368:
 3702 00a2 982F      		mov r25,r24
 3703               	.LVL369:
 3704               	.LBB8:
 3705               	.LSM310:
 3706 00a4 8823      		tst r24
 3707 00a6 01F0      		breq .+2
 3708 00a8 00C0      		rjmp .L187
 3709               	.LVL370:
 3710               	.LSM311:
 3711 00aa 8881      		ld r24,Y
 3712               	.LVL371:
 3713 00ac 8330      		cpi r24,lo8(3)
 3714 00ae 01F0      		breq .+2
 3715 00b0 00C0      		rjmp .L188
 3716 00b2 8D81      		ldd r24,Y+5
 3717 00b4 8823      		tst r24
 3718 00b6 01F4      		brne .+2
 3719 00b8 00C0      		rjmp .L188
 3720               	.LSM312:
 3721 00ba 1AA6      		std Y+42,__zero_reg__
 3722 00bc 1BA6      		std Y+43,__zero_reg__
 3723 00be 1CA6      		std Y+44,__zero_reg__
 3724 00c0 1DA6      		std Y+45,__zero_reg__
 3725               	.LSM313:
 3726 00c2 8E01      		movw r16,r28
 3727               	.LVL372:
 3728 00c4 025D      		subi r16,lo8(-(46))
 3729 00c6 1F4F      		sbci r17,hi8(-(46))
 3730 00c8 C801      		movw r24,r16
 3731 00ca 60E0      		ldi r22,lo8(0)
 3732 00cc 70E0      		ldi r23,hi8(0)
 3733 00ce 40E0      		ldi r20,lo8(512)
 3734 00d0 52E0      		ldi r21,hi8(512)
 3735 00d2 0E94 0000 		call mem_set
 3736               	.LVL373:
 3737               	.LSM314:
 3738 00d6 C45D      		subi r28,lo8(-(556))
 3739 00d8 DD4F      		sbci r29,hi8(-(556))
 3740 00da 85E5      		ldi r24,lo8(-21931)
 3741 00dc 9AEA      		ldi r25,hi8(-21931)
 3742 00de 9983      		std Y+1,r25
 3743 00e0 8883      		st Y,r24
 3744 00e2 CC52      		subi r28,lo8(-(-556))
 3745 00e4 D240      		sbci r29,hi8(-(-556))
 3746               	.LSM315:
 3747 00e6 82E5      		ldi r24,lo8(1096897106)
 3748 00e8 92E5      		ldi r25,hi8(1096897106)
 3749 00ea A1E6      		ldi r26,hlo8(1096897106)
 3750 00ec B1E4      		ldi r27,hhi8(1096897106)
 3751 00ee 8EA7      		std Y+46,r24
 3752 00f0 9FA7      		std Y+47,r25
 3753 00f2 A8AB      		std Y+48,r26
 3754 00f4 B9AB      		std Y+49,r27
 3755               	.LSM316:
 3756 00f6 CE5E      		subi r28,lo8(-(530))
 3757 00f8 DD4F      		sbci r29,hi8(-(530))
 3758 00fa 82E7      		ldi r24,lo8(1631679090)
 3759 00fc 92E7      		ldi r25,hi8(1631679090)
 3760 00fe A1E4      		ldi r26,hlo8(1631679090)
 3761 0100 B1E6      		ldi r27,hhi8(1631679090)
 3762 0102 8883      		st Y,r24
 3763 0104 9983      		std Y+1,r25
 3764 0106 AA83      		std Y+2,r26
 3765 0108 BB83      		std Y+3,r27
 3766 010a C251      		subi r28,lo8(-(-530))
 3767 010c D240      		sbci r29,hi8(-(-530))
 3768               	.LSM317:
 3769 010e 8E85      		ldd r24,Y+14
 3770 0110 9F85      		ldd r25,Y+15
 3771 0112 A889      		ldd r26,Y+16
 3772 0114 B989      		ldd r27,Y+17
 3773 0116 CA5E      		subi r28,lo8(-(534))
 3774 0118 DD4F      		sbci r29,hi8(-(534))
 3775 011a 8883      		st Y,r24
 3776 011c 9983      		std Y+1,r25
 3777 011e AA83      		std Y+2,r26
 3778 0120 BB83      		std Y+3,r27
 3779 0122 C651      		subi r28,lo8(-(-534))
 3780 0124 D240      		sbci r29,hi8(-(-534))
 3781               	.LSM318:
 3782 0126 8A85      		ldd r24,Y+10
 3783 0128 9B85      		ldd r25,Y+11
 3784 012a AC85      		ldd r26,Y+12
 3785 012c BD85      		ldd r27,Y+13
 3786 012e C65E      		subi r28,lo8(-(538))
 3787 0130 DD4F      		sbci r29,hi8(-(538))
 3788 0132 8883      		st Y,r24
 3789 0134 9983      		std Y+1,r25
 3790 0136 AA83      		std Y+2,r26
 3791 0138 BB83      		std Y+3,r27
 3792 013a CA51      		subi r28,lo8(-(-538))
 3793 013c D240      		sbci r29,hi8(-(-538))
 3794               	.LSM319:
 3795 013e 2A89      		ldd r18,Y+18
 3796 0140 3B89      		ldd r19,Y+19
 3797 0142 4C89      		ldd r20,Y+20
 3798 0144 5D89      		ldd r21,Y+21
 3799 0146 8981      		ldd r24,Y+1
 3800 0148 B801      		movw r22,r16
 3801 014a 01E0      		ldi r16,lo8(1)
 3802 014c 0E94 0000 		call disk_write
 3803               	.LSM320:
 3804 0150 1D82      		std Y+5,__zero_reg__
 3805               	.LVL374:
 3806               	.L188:
 3807               	.LBE8:
 3808               	.LSM321:
 3809 0152 8981      		ldd r24,Y+1
 3810 0154 60E0      		ldi r22,lo8(0)
 3811 0156 40E0      		ldi r20,lo8(0)
 3812 0158 50E0      		ldi r21,hi8(0)
 3813 015a 0E94 0000 		call disk_ioctl
 3814               	.LVL375:
 3815 015e 8111      		cpse r24,__zero_reg__
 3816 0160 81E0      		ldi r24,lo8(1)
 3817               	.L189:
 3818 0162 982F      		mov r25,r24
 3819               	.LVL376:
 3820               	.L187:
 3821               	.LBE7:
 3822               	.LSM322:
 3823 0164 892F      		mov r24,r25
 3824               	/* epilogue start */
 3825 0166 DF91      		pop r29
 3826 0168 CF91      		pop r28
 3827               	.LVL377:
 3828 016a 1F91      		pop r17
 3829 016c 0F91      		pop r16
 3830               	.LVL378:
 3831 016e 0895      		ret
 3832               	.LFE160:
 3834               		.section	.text.f_close,"ax",@progbits
 3835               	.global	f_close
 3837               	f_close:
 3838               	.LFB161:
 3839               	.LSM323:
 3840               	.LVL379:
 3841 0000 CF93      		push r28
 3842 0002 DF93      		push r29
 3843               	/* prologue: function */
 3844               	/* frame size = 0 */
 3845 0004 EC01      		movw r28,r24
 3846               	.LSM324:
 3847 0006 0E94 0000 		call f_sync
 3848               	.LVL380:
 3849               	.LSM325:
 3850 000a 8823      		tst r24
 3851               	.LVL381:
 3852 000c 01F4      		brne .L192
 3853 000e 1982      		std Y+1,__zero_reg__
 3854 0010 1882      		st Y,__zero_reg__
 3855               	.L192:
 3856               	.LVL382:
 3857               	/* epilogue start */
 3858               	.LSM326:
 3859 0012 DF91      		pop r29
 3860 0014 CF91      		pop r28
 3861               	.LVL383:
 3862 0016 0895      		ret
 3863               	.LFE161:
 3865               		.data
 3866               	.LC0:
 3867 0000 222A 2B2C 		.string	"\"*+,:;<=>?[]|\177"
 3867      3A3B 3C3D 
 3867      3E3F 5B5D 
 3867      7C7F 00
 3868               		.section	.text.f_open,"ax",@progbits
 3869               	.global	f_open
 3871               	f_open:
 3872               	.LFB157:
 3873               	.LSM327:
 3874               	.LVL384:
 3875 0000 2F92      		push r2
 3876 0002 3F92      		push r3
 3877 0004 4F92      		push r4
 3878 0006 5F92      		push r5
 3879 0008 6F92      		push r6
 3880 000a 7F92      		push r7
 3881 000c 8F92      		push r8
 3882 000e 9F92      		push r9
 3883 0010 AF92      		push r10
 3884 0012 BF92      		push r11
 3885 0014 CF92      		push r12
 3886 0016 DF92      		push r13
 3887 0018 EF92      		push r14
 3888 001a FF92      		push r15
 3889 001c 0F93      		push r16
 3890 001e 1F93      		push r17
 3891 0020 DF93      		push r29
 3892 0022 CF93      		push r28
 3893 0024 CDB7      		in r28,__SP_L__
 3894 0026 DEB7      		in r29,__SP_H__
 3895 0028 E597      		sbiw r28,53
 3896 002a 0FB6      		in __tmp_reg__,__SREG__
 3897 002c F894      		cli
 3898 002e DEBF      		out __SP_H__,r29
 3899 0030 0FBE      		out __SREG__,__tmp_reg__
 3900 0032 CDBF      		out __SP_L__,r28
 3901               	/* prologue: function */
 3902               	/* frame size = 53 */
 3903 0034 9BAB      		std Y+51,r25
 3904 0036 8AAB      		std Y+50,r24
 3905 0038 7DAB      		std Y+53,r23
 3906 003a 6CAB      		std Y+52,r22
 3907               	.LSM328:
 3908 003c DC01      		movw r26,r24
 3909 003e 1D92      		st X+,__zero_reg__
 3910 0040 1C92      		st X,__zero_reg__
 3911               	.LSM329:
 3912 0042 4F71      		andi r20,lo8(31)
 3913 0044 4BA7      		std Y+43,r20
 3914               	.LBB26:
 3915               	.LBB27:
 3916               	.LSM330:
 3917 0046 ECA9      		ldd r30,Y+52
 3918 0048 FDA9      		ldd r31,Y+53
 3919 004a 8081      		ld r24,Z
 3920               	.LVL385:
 3921 004c 282F      		mov r18,r24
 3922               	.LVL386:
 3923 004e 30E0      		ldi r19,lo8(0)
 3924               	.LVL387:
 3925 0050 2053      		subi r18,lo8(-(-48))
 3926 0052 3040      		sbci r19,hi8(-(-48))
 3927               	.LVL388:
 3928               	.LSM331:
 3929 0054 2A30      		cpi r18,10
 3930 0056 3105      		cpc r19,__zero_reg__
 3931 0058 00F4      		brsh .L195
 3932               	.LVL389:
 3933 005a 8181      		ldd r24,Z+1
 3934 005c 8A33      		cpi r24,lo8(58)
 3935 005e 01F4      		brne .L195
 3936               	.LSM332:
 3937 0060 3296      		adiw r30,2
 3938 0062 FDAB      		std Y+53,r31
 3939 0064 ECAB      		std Y+52,r30
 3940               	.LVL390:
 3941               	.LSM333:
 3942 0066 232B      		or r18,r19
 3943 0068 01F0      		breq .L195
 3944 006a 5BE0      		ldi r21,lo8(11)
 3945 006c B52E      		mov r11,r21
 3946               	.LVL391:
 3947 006e 00C0      		rjmp .L196
 3948               	.LVL392:
 3949               	.L195:
 3950               	.LSM334:
 3951 0070 E090 0000 		lds r14,FatFs
 3952 0074 F090 0000 		lds r15,(FatFs)+1
 3953               	.LVL393:
 3954 0078 FE86      		std Y+14,r15
 3955 007a ED86      		std Y+13,r14
 3956               	.LSM335:
 3957 007c E114      		cp r14,__zero_reg__
 3958 007e F104      		cpc r15,__zero_reg__
 3959 0080 01F4      		brne .L197
 3960 0082 4CE0      		ldi r20,lo8(12)
 3961 0084 B42E      		mov r11,r20
 3962               	.LVL394:
 3963 0086 00C0      		rjmp .L196
 3964               	.LVL395:
 3965               	.L197:
 3966               	.LBE27:
 3967               	.LBE26:
 3968               	.LSM336:
 3969 0088 1BA5      		ldd r17,Y+43
 3970 008a 1E7F      		andi r17,lo8(-2)
 3971               	.LBB34:
 3972               	.LBB28:
 3973               	.LSM337:
 3974 008c D701      		movw r26,r14
 3975 008e 8C91      		ld r24,X
 3976 0090 8823      		tst r24
 3977 0092 01F0      		breq .L198
 3978               	.LBE28:
 3979               	.LSM338:
 3980 0094 1196      		adiw r26,1
 3981 0096 8C91      		ld r24,X
 3982 0098 0E94 0000 		call disk_status
 3983               	.LVL396:
 3984               	.LBB29:
 3985               	.LSM339:
 3986 009c 80FD      		sbrc r24,0
 3987 009e 00C0      		rjmp .L198
 3988               	.LSM340:
 3989 00a0 1123      		tst r17
 3990 00a2 01F4      		brne .+2
 3991 00a4 00C0      		rjmp .L199
 3992 00a6 82FD      		sbrc r24,2
 3993 00a8 00C0      		rjmp .L200
 3994 00aa 00C0      		rjmp .L199
 3995               	.LVL397:
 3996               	.L198:
 3997               	.LSM341:
 3998 00ac F701      		movw r30,r14
 3999 00ae 1082      		st Z,__zero_reg__
 4000               	.LSM342:
 4001 00b0 1182      		std Z+1,__zero_reg__
 4002               	.LBE29:
 4003               	.LSM343:
 4004 00b2 80E0      		ldi r24,lo8(0)
 4005 00b4 0E94 0000 		call disk_initialize
 4006               	.LVL398:
 4007               	.LSM344:
 4008 00b8 80FF      		sbrs r24,0
 4009 00ba 00C0      		rjmp .L201
 4010 00bc 33E0      		ldi r19,lo8(3)
 4011 00be B32E      		mov r11,r19
 4012               	.LVL399:
 4013 00c0 00C0      		rjmp .L196
 4014               	.LVL400:
 4015               	.L201:
 4016               	.LBB30:
 4017               	.LSM345:
 4018 00c2 1123      		tst r17
 4019 00c4 01F0      		breq .L202
 4020 00c6 82FD      		sbrc r24,2
 4021 00c8 00C0      		rjmp .L200
 4022               	.L202:
 4023               	.LBE30:
 4024               	.LSM346:
 4025 00ca C701      		movw r24,r14
 4026 00cc 40E0      		ldi r20,lo8(0)
 4027 00ce 50E0      		ldi r21,hi8(0)
 4028 00d0 60E0      		ldi r22,hlo8(0)
 4029 00d2 70E0      		ldi r23,hhi8(0)
 4030 00d4 0E94 0000 		call check_fs
 4031               	.LBB31:
 4032               	.LSM347:
 4033 00d8 8130      		cpi r24,lo8(1)
 4034               	.LVL401:
 4035 00da 01F0      		breq .L203
 4036 00dc 1CA6      		std Y+44,__zero_reg__
 4037 00de 1DA6      		std Y+45,__zero_reg__
 4038 00e0 1EA6      		std Y+46,__zero_reg__
 4039 00e2 1FA6      		std Y+47,__zero_reg__
 4040               	.LVL402:
 4041 00e4 00C0      		rjmp .L204
 4042               	.LVL403:
 4043               	.L203:
 4044               	.LSM348:
 4045 00e6 F701      		movw r30,r14
 4046               	.LVL404:
 4047 00e8 E451      		subi r30,lo8(-(492))
 4048 00ea FE4F      		sbci r31,hi8(-(492))
 4049               	.LSM349:
 4050 00ec 8481      		ldd r24,Z+4
 4051               	.LVL405:
 4052 00ee 8823      		tst r24
 4053 00f0 01F4      		brne .+2
 4054 00f2 00C0      		rjmp .L205
 4055               	.LSM350:
 4056 00f4 2085      		ldd r18,Z+8
 4057 00f6 3185      		ldd r19,Z+9
 4058 00f8 4285      		ldd r20,Z+10
 4059 00fa 5385      		ldd r21,Z+11
 4060 00fc 2CA7      		std Y+44,r18
 4061 00fe 3DA7      		std Y+45,r19
 4062 0100 4EA7      		std Y+46,r20
 4063 0102 5FA7      		std Y+47,r21
 4064               	.LVL406:
 4065               	.LBE31:
 4066               	.LSM351:
 4067 0104 C701      		movw r24,r14
 4068 0106 BA01      		movw r22,r20
 4069 0108 A901      		movw r20,r18
 4070 010a 0E94 0000 		call check_fs
 4071               	.LVL407:
 4072               	.L204:
 4073               	.LBB32:
 4074               	.LSM352:
 4075 010e 8330      		cpi r24,lo8(3)
 4076 0110 01F4      		brne .L206
 4077 0112 BB24      		clr r11
 4078 0114 B394      		inc r11
 4079               	.LVL408:
 4080 0116 00C0      		rjmp .L196
 4081               	.LVL409:
 4082               	.L206:
 4083               	.LSM353:
 4084 0118 8823      		tst r24
 4085 011a 01F0      		breq .+2
 4086 011c 00C0      		rjmp .L205
 4087               	.LSM354:
 4088 011e D701      		movw r26,r14
 4089 0120 D996      		adiw r26,57
 4090 0122 8D91      		ld r24,X+
 4091 0124 9C91      		ld r25,X
 4092 0126 DA97      		sbiw r26,57+1
 4093               	.LVL410:
 4094 0128 8050      		subi r24,lo8(512)
 4095 012a 9240      		sbci r25,hi8(512)
 4096 012c 01F0      		breq .+2
 4097 012e 00C0      		rjmp .L205
 4098               	.LSM355:
 4099 0130 E4E4      		ldi r30,lo8(68)
 4100 0132 F0E0      		ldi r31,hi8(68)
 4101 0134 EE0E      		add r14,r30
 4102 0136 FF1E      		adc r15,r31
 4103 0138 D701      		movw r26,r14
 4104 013a 8D91      		ld r24,X+
 4105 013c 9C91      		ld r25,X
 4106 013e ECEB      		ldi r30,lo8(-68)
 4107 0140 FFEF      		ldi r31,hi8(-68)
 4108 0142 EE0E      		add r14,r30
 4109 0144 FF1E      		adc r15,r31
 4110 0146 3C01      		movw r6,r24
 4111               	.LVL411:
 4112 0148 8824      		clr r8
 4113 014a 9924      		clr r9
 4114               	.LVL412:
 4115               	.LSM356:
 4116 014c 6114      		cp r6,__zero_reg__
 4117 014e 7104      		cpc r7,__zero_reg__
 4118 0150 8104      		cpc r8,__zero_reg__
 4119 0152 9104      		cpc r9,__zero_reg__
 4120 0154 01F4      		brne .L207
 4121 0156 22E5      		ldi r18,lo8(82)
 4122 0158 30E0      		ldi r19,hi8(82)
 4123 015a E20E      		add r14,r18
 4124 015c F31E      		adc r15,r19
 4125 015e D701      		movw r26,r14
 4126 0160 6D90      		ld r6,X+
 4127 0162 7D90      		ld r7,X+
 4128 0164 8D90      		ld r8,X+
 4129 0166 9C90      		ld r9,X
 4130               	.LVL413:
 4131 0168 EEEA      		ldi r30,lo8(-82)
 4132 016a FFEF      		ldi r31,hi8(-82)
 4133 016c EE0E      		add r14,r30
 4134 016e FF1E      		adc r15,r31
 4135               	.L207:
 4136               	.LSM357:
 4137 0170 D701      		movw r26,r14
 4138 0172 5A96      		adiw r26,26
 4139 0174 6D92      		st X+,r6
 4140 0176 7D92      		st X+,r7
 4141 0178 8D92      		st X+,r8
 4142 017a 9C92      		st X,r9
 4143 017c 5D97      		sbiw r26,26+3
 4144               	.LSM358:
 4145 017e DE96      		adiw r26,62
 4146 0180 4C91      		ld r20,X
 4147 0182 DE97      		sbiw r26,62
 4148               	.LVL414:
 4149 0184 1396      		adiw r26,3
 4150 0186 4C93      		st X,r20
 4151 0188 1397      		sbiw r26,3
 4152               	.LSM359:
 4153 018a 842F      		mov r24,r20
 4154 018c 8150      		subi r24,lo8(-(-1))
 4155 018e 8230      		cpi r24,lo8(2)
 4156 0190 00F0      		brlo .+2
 4157 0192 00C0      		rjmp .L205
 4158               	.LSM360:
 4159 0194 DB96      		adiw r26,59
 4160 0196 2C91      		ld r18,X
 4161 0198 DB97      		sbiw r26,59
 4162               	.LVL415:
 4163 019a 1296      		adiw r26,2
 4164 019c 2C93      		st X,r18
 4165               	.LSM361:
 4166 019e 2223      		tst r18
 4167 01a0 01F4      		brne .+2
 4168 01a2 00C0      		rjmp .L205
 4169 01a4 30E0      		ldi r19,lo8(0)
 4170 01a6 C901      		movw r24,r18
 4171               	.LVL416:
 4172 01a8 0197      		sbiw r24,1
 4173 01aa 8223      		and r24,r18
 4174 01ac 9323      		and r25,r19
 4175 01ae 892B      		or r24,r25
 4176 01b0 01F0      		breq .+2
 4177 01b2 00C0      		rjmp .L205
 4178               	.LSM362:
 4179 01b4 EFE3      		ldi r30,lo8(63)
 4180 01b6 F0E0      		ldi r31,hi8(63)
 4181 01b8 EE0E      		add r14,r30
 4182 01ba FF1E      		adc r15,r31
 4183 01bc D701      		movw r26,r14
 4184 01be 0D91      		ld r16,X+
 4185 01c0 1C91      		ld r17,X
 4186 01c2 E1EC      		ldi r30,lo8(-63)
 4187 01c4 FFEF      		ldi r31,hi8(-63)
 4188 01c6 EE0E      		add r14,r30
 4189 01c8 FF1E      		adc r15,r31
 4190 01ca D701      		movw r26,r14
 4191 01cc 1996      		adiw r26,8+1
 4192 01ce 1C93      		st X,r17
 4193 01d0 0E93      		st -X,r16
 4194 01d2 1897      		sbiw r26,8
 4195               	.LSM363:
 4196 01d4 C801      		movw r24,r16
 4197 01d6 8F70      		andi r24,lo8(15)
 4198 01d8 9070      		andi r25,hi8(15)
 4199 01da 892B      		or r24,r25
 4200 01dc 01F0      		breq .+2
 4201 01de 00C0      		rjmp .L205
 4202               	.LSM364:
 4203 01e0 E1E4      		ldi r30,lo8(65)
 4204 01e2 F0E0      		ldi r31,hi8(65)
 4205 01e4 EE0E      		add r14,r30
 4206 01e6 FF1E      		adc r15,r31
 4207 01e8 D701      		movw r26,r14
 4208 01ea 8D91      		ld r24,X+
 4209 01ec 9C91      		ld r25,X
 4210 01ee EFEB      		ldi r30,lo8(-65)
 4211 01f0 FFEF      		ldi r31,hi8(-65)
 4212 01f2 EE0E      		add r14,r30
 4213 01f4 FF1E      		adc r15,r31
 4214 01f6 5C01      		movw r10,r24
 4215               	.LVL417:
 4216 01f8 CC24      		clr r12
 4217 01fa DD24      		clr r13
 4218               	.LVL418:
 4219               	.LSM365:
 4220 01fc A114      		cp r10,__zero_reg__
 4221 01fe B104      		cpc r11,__zero_reg__
 4222 0200 C104      		cpc r12,__zero_reg__
 4223 0202 D104      		cpc r13,__zero_reg__
 4224 0204 01F4      		brne .L208
 4225 0206 2EE4      		ldi r18,lo8(78)
 4226 0208 30E0      		ldi r19,hi8(78)
 4227 020a E20E      		add r14,r18
 4228 020c F31E      		adc r15,r19
 4229 020e D701      		movw r26,r14
 4230 0210 AD90      		ld r10,X+
 4231 0212 BD90      		ld r11,X+
 4232 0214 CD90      		ld r12,X+
 4233 0216 DC90      		ld r13,X
 4234               	.LVL419:
 4235 0218 E2EB      		ldi r30,lo8(-78)
 4236 021a FFEF      		ldi r31,hi8(-78)
 4237 021c EE0E      		add r14,r30
 4238 021e FF1E      		adc r15,r31
 4239               	.L208:
 4240               	.LSM366:
 4241 0220 D701      		movw r26,r14
 4242 0222 DC96      		adiw r26,60
 4243 0224 4D90      		ld r4,X+
 4244 0226 5C90      		ld r5,X
 4245 0228 DD97      		sbiw r26,60+1
 4246               	.LVL420:
 4247               	.LSM367:
 4248 022a 4114      		cp r4,__zero_reg__
 4249 022c 5104      		cpc r5,__zero_reg__
 4250 022e 01F4      		brne .+2
 4251 0230 00C0      		rjmp .L205
 4252               	.LSM368:
 4253 0232 242F      		mov r18,r20
 4254               	.LVL421:
 4255 0234 30E0      		ldi r19,lo8(0)
 4256               	.LVL422:
 4257 0236 40E0      		ldi r20,lo8(0)
 4258 0238 50E0      		ldi r21,hi8(0)
 4259               	.LVL423:
 4260 023a C401      		movw r24,r8
 4261 023c B301      		movw r22,r6
 4262 023e 0E94 0000 		call __mulsi3
 4263               	.LVL424:
 4264 0242 6BA3      		std Y+35,r22
 4265 0244 7CA3      		std Y+36,r23
 4266 0246 8DA3      		std Y+37,r24
 4267 0248 9EA3      		std Y+38,r25
 4268               	.LVL425:
 4269               	.LSM369:
 4270 024a 1201      		movw r2,r4
 4271 024c 4424      		clr r4
 4272 024e 5524      		clr r5
 4273               	.LVL426:
 4274 0250 24E0      		ldi r18,4
 4275 0252 1695      	1:	lsr r17
 4276 0254 0795      		ror r16
 4277 0256 2A95      		dec r18
 4278 0258 01F4      		brne 1b
 4279 025a 3801      		movw r6,r16
 4280               	.LVL427:
 4281 025c 8824      		clr r8
 4282 025e 9924      		clr r9
 4283               	.LVL428:
 4284 0260 620C      		add r6,r2
 4285 0262 731C      		adc r7,r3
 4286 0264 841C      		adc r8,r4
 4287 0266 951C      		adc r9,r5
 4288               	.LVL429:
 4289 0268 660E      		add r6,r22
 4290 026a 771E      		adc r7,r23
 4291 026c 881E      		adc r8,r24
 4292 026e 991E      		adc r9,r25
 4293               	.LSM370:
 4294 0270 A614      		cp r10,r6
 4295 0272 B704      		cpc r11,r7
 4296 0274 C804      		cpc r12,r8
 4297 0276 D904      		cpc r13,r9
 4298 0278 00F4      		brsh .+2
 4299 027a 00C0      		rjmp .L205
 4300               	.LSM371:
 4301 027c A618      		sub r10,r6
 4302 027e B708      		sbc r11,r7
 4303 0280 C808      		sbc r12,r8
 4304 0282 D908      		sbc r13,r9
 4305               	.LVL430:
 4306 0284 F701      		movw r30,r14
 4307 0286 2281      		ldd r18,Z+2
 4308 0288 30E0      		ldi r19,lo8(0)
 4309               	.LVL431:
 4310 028a 40E0      		ldi r20,lo8(0)
 4311 028c 50E0      		ldi r21,hi8(0)
 4312               	.LVL432:
 4313 028e C601      		movw r24,r12
 4314 0290 B501      		movw r22,r10
 4315 0292 0E94 0000 		call __udivmodsi4
 4316 0296 C901      		movw r24,r18
 4317 0298 DA01      		movw r26,r20
 4318               	.LSM372:
 4319 029a 0097      		sbiw r24,0
 4320 029c A105      		cpc r26,__zero_reg__
 4321 029e B105      		cpc r27,__zero_reg__
 4322               	.LVL433:
 4323 02a0 01F4      		brne .+2
 4324 02a2 00C0      		rjmp .L205
 4325               	.LSM373:
 4326 02a4 863F      		cpi r24,lo8(4086)
 4327 02a6 FFE0      		ldi r31,hi8(4086)
 4328 02a8 9F07      		cpc r25,r31
 4329 02aa F0E0      		ldi r31,hlo8(4086)
 4330 02ac AF07      		cpc r26,r31
 4331 02ae F0E0      		ldi r31,hhi8(4086)
 4332 02b0 BF07      		cpc r27,r31
 4333 02b2 00F4      		brsh .L209
 4334 02b4 11E0      		ldi r17,lo8(1)
 4335               	.LVL434:
 4336 02b6 00C0      		rjmp .L210
 4337               	.LVL435:
 4338               	.L209:
 4339               	.LSM374:
 4340 02b8 863F      		cpi r24,lo8(65526)
 4341 02ba 2FEF      		ldi r18,hi8(65526)
 4342 02bc 9207      		cpc r25,r18
 4343 02be 20E0      		ldi r18,hlo8(65526)
 4344 02c0 A207      		cpc r26,r18
 4345 02c2 20E0      		ldi r18,hhi8(65526)
 4346 02c4 B207      		cpc r27,r18
 4347 02c6 00F0      		brlo .L211
 4348 02c8 13E0      		ldi r17,lo8(3)
 4349               	.LVL436:
 4350 02ca 00C0      		rjmp .L210
 4351               	.LVL437:
 4352               	.L211:
 4353 02cc 12E0      		ldi r17,lo8(2)
 4354               	.LVL438:
 4355               	.L210:
 4356               	.LSM375:
 4357 02ce 02E0      		ldi r16,lo8(2)
 4358 02d0 A02E      		mov r10,r16
 4359 02d2 B12C      		mov r11,__zero_reg__
 4360 02d4 C12C      		mov r12,__zero_reg__
 4361 02d6 D12C      		mov r13,__zero_reg__
 4362               	.LVL439:
 4363 02d8 A80E      		add r10,r24
 4364 02da B91E      		adc r11,r25
 4365 02dc CA1E      		adc r12,r26
 4366 02de DB1E      		adc r13,r27
 4367 02e0 D701      		movw r26,r14
 4368 02e2 5696      		adiw r26,22
 4369 02e4 AD92      		st X+,r10
 4370 02e6 BD92      		st X+,r11
 4371 02e8 CD92      		st X+,r12
 4372 02ea DC92      		st X,r13
 4373 02ec 5997      		sbiw r26,22+3
 4374               	.LSM376:
 4375 02ee 2CA5      		ldd r18,Y+44
 4376 02f0 3DA5      		ldd r19,Y+45
 4377 02f2 4EA5      		ldd r20,Y+46
 4378 02f4 5FA5      		ldd r21,Y+47
 4379 02f6 620E      		add r6,r18
 4380 02f8 731E      		adc r7,r19
 4381 02fa 841E      		adc r8,r20
 4382 02fc 951E      		adc r9,r21
 4383 02fe 9696      		adiw r26,38
 4384 0300 6D92      		st X+,r6
 4385 0302 7D92      		st X+,r7
 4386 0304 8D92      		st X+,r8
 4387 0306 9C92      		st X,r9
 4388 0308 9997      		sbiw r26,38+3
 4389               	.LSM377:
 4390 030a DA01      		movw r26,r20
 4391 030c C901      		movw r24,r18
 4392               	.LVL440:
 4393 030e 820D      		add r24,r2
 4394 0310 931D      		adc r25,r3
 4395 0312 A41D      		adc r26,r4
 4396 0314 B51D      		adc r27,r5
 4397 0316 F701      		movw r30,r14
 4398 0318 868F      		std Z+30,r24
 4399 031a 978F      		std Z+31,r25
 4400 031c A0A3      		std Z+32,r26
 4401 031e B1A3      		std Z+33,r27
 4402 0320 2085      		ldd r18,Z+8
 4403 0322 3185      		ldd r19,Z+9
 4404               	.LSM378:
 4405 0324 1330      		cpi r17,lo8(3)
 4406 0326 01F4      		brne .L212
 4407               	.LSM379:
 4408 0328 232B      		or r18,r19
 4409 032a 01F0      		breq .+2
 4410 032c 00C0      		rjmp .L205
 4411               	.LSM380:
 4412 032e 2AE5      		ldi r18,lo8(90)
 4413 0330 30E0      		ldi r19,hi8(90)
 4414 0332 E20E      		add r14,r18
 4415 0334 F31E      		adc r15,r19
 4416 0336 F701      		movw r30,r14
 4417 0338 8081      		ld r24,Z
 4418 033a 9181      		ldd r25,Z+1
 4419 033c A281      		ldd r26,Z+2
 4420 033e B381      		ldd r27,Z+3
 4421 0340 26EA      		ldi r18,lo8(-90)
 4422 0342 3FEF      		ldi r19,hi8(-90)
 4423 0344 E20E      		add r14,r18
 4424 0346 F31E      		adc r15,r19
 4425 0348 F701      		movw r30,r14
 4426 034a 82A3      		std Z+34,r24
 4427 034c 93A3      		std Z+35,r25
 4428 034e A4A3      		std Z+36,r26
 4429 0350 B5A3      		std Z+37,r27
 4430               	.LSM381:
 4431 0352 A601      		movw r20,r12
 4432 0354 9501      		movw r18,r10
 4433               	.LVL441:
 4434 0356 F2E0      		ldi r31,2
 4435 0358 220F      	1:	lsl r18
 4436 035a 331F      		rol r19
 4437 035c 441F      		rol r20
 4438 035e 551F      		rol r21
 4439 0360 FA95      		dec r31
 4440 0362 01F4      		brne 1b
 4441 0364 00C0      		rjmp .L213
 4442               	.LVL442:
 4443               	.L212:
 4444               	.LSM382:
 4445 0366 232B      		or r18,r19
 4446 0368 01F4      		brne .+2
 4447 036a 00C0      		rjmp .L205
 4448               	.LSM383:
 4449 036c 2BA1      		ldd r18,Y+35
 4450 036e 3CA1      		ldd r19,Y+36
 4451 0370 4DA1      		ldd r20,Y+37
 4452 0372 5EA1      		ldd r21,Y+38
 4453 0374 820F      		add r24,r18
 4454 0376 931F      		adc r25,r19
 4455 0378 A41F      		adc r26,r20
 4456 037a B51F      		adc r27,r21
 4457 037c F701      		movw r30,r14
 4458 037e 82A3      		std Z+34,r24
 4459 0380 93A3      		std Z+35,r25
 4460 0382 A4A3      		std Z+36,r26
 4461 0384 B5A3      		std Z+37,r27
 4462 0386 D601      		movw r26,r12
 4463 0388 C501      		movw r24,r10
 4464 038a 880F      		lsl r24
 4465 038c 991F      		rol r25
 4466 038e AA1F      		rol r26
 4467 0390 BB1F      		rol r27
 4468               	.LSM384:
 4469 0392 1230      		cpi r17,lo8(2)
 4470 0394 01F4      		brne .L214
 4471 0396 9C01      		movw r18,r24
 4472 0398 AD01      		movw r20,r26
 4473               	.LVL443:
 4474 039a 00C0      		rjmp .L213
 4475               	.LVL444:
 4476               	.L214:
 4477 039c 9C01      		movw r18,r24
 4478 039e AD01      		movw r20,r26
 4479               	.LVL445:
 4480 03a0 2A0D      		add r18,r10
 4481 03a2 3B1D      		adc r19,r11
 4482 03a4 4C1D      		adc r20,r12
 4483 03a6 5D1D      		adc r21,r13
 4484 03a8 5695      		lsr r21
 4485 03aa 4795      		ror r20
 4486 03ac 3795      		ror r19
 4487 03ae 2795      		ror r18
 4488 03b0 81E0      		ldi r24,lo8(1)
 4489 03b2 90E0      		ldi r25,hi8(1)
 4490 03b4 A0E0      		ldi r26,hlo8(1)
 4491 03b6 B0E0      		ldi r27,hhi8(1)
 4492 03b8 A822      		and r10,r24
 4493 03ba B922      		and r11,r25
 4494 03bc CA22      		and r12,r26
 4495 03be DB22      		and r13,r27
 4496 03c0 2A0D      		add r18,r10
 4497 03c2 3B1D      		adc r19,r11
 4498 03c4 4C1D      		adc r20,r12
 4499 03c6 5D1D      		adc r21,r13
 4500               	.L213:
 4501               	.LSM385:
 4502 03c8 2150      		subi r18,lo8(-(511))
 4503 03ca 3E4F      		sbci r19,hi8(-(511))
 4504 03cc 4F4F      		sbci r20,hlo8(-(511))
 4505 03ce 5F4F      		sbci r21,hhi8(-(511))
 4506 03d0 69E0      		ldi r22,9
 4507 03d2 5695      	1:	lsr r21
 4508 03d4 4795      		ror r20
 4509 03d6 3795      		ror r19
 4510 03d8 2795      		ror r18
 4511 03da 6A95      		dec r22
 4512 03dc 01F4      		brne 1b
 4513 03de F701      		movw r30,r14
 4514 03e0 828D      		ldd r24,Z+26
 4515 03e2 938D      		ldd r25,Z+27
 4516 03e4 A48D      		ldd r26,Z+28
 4517 03e6 B58D      		ldd r27,Z+29
 4518 03e8 8217      		cp r24,r18
 4519 03ea 9307      		cpc r25,r19
 4520 03ec A407      		cpc r26,r20
 4521 03ee B507      		cpc r27,r21
 4522 03f0 00F4      		brsh .+2
 4523 03f2 00C0      		rjmp .L205
 4524               	.LSM386:
 4525 03f4 8FEF      		ldi r24,lo8(-1)
 4526 03f6 9FEF      		ldi r25,hi8(-1)
 4527 03f8 AFEF      		ldi r26,hlo8(-1)
 4528 03fa BFEF      		ldi r27,hhi8(-1)
 4529 03fc 8687      		std Z+14,r24
 4530 03fe 9787      		std Z+15,r25
 4531 0400 A08B      		std Z+16,r26
 4532 0402 B18B      		std Z+17,r27
 4533               	.LSM387:
 4534 0404 D701      		movw r26,r14
 4535 0406 1A96      		adiw r26,10
 4536 0408 1D92      		st X+,__zero_reg__
 4537 040a 1D92      		st X+,__zero_reg__
 4538 040c 1D92      		st X+,__zero_reg__
 4539 040e 1C92      		st X,__zero_reg__
 4540 0410 1D97      		sbiw r26,10+3
 4541               	.LSM388:
 4542 0412 1330      		cpi r17,lo8(3)
 4543 0414 01F0      		breq .+2
 4544 0416 00C0      		rjmp .L215
 4545               	.LSM389:
 4546 0418 1596      		adiw r26,5
 4547 041a 1C92      		st X,__zero_reg__
 4548               	.LSM390:
 4549 041c EEE5      		ldi r30,lo8(94)
 4550 041e F0E0      		ldi r31,hi8(94)
 4551 0420 EE0E      		add r14,r30
 4552 0422 FF1E      		adc r15,r31
 4553 0424 D701      		movw r26,r14
 4554 0426 2D91      		ld r18,X+
 4555 0428 3C91      		ld r19,X
 4556               	.LVL446:
 4557 042a E2EA      		ldi r30,lo8(-94)
 4558 042c FFEF      		ldi r31,hi8(-94)
 4559 042e EE0E      		add r14,r30
 4560 0430 FF1E      		adc r15,r31
 4561 0432 40E0      		ldi r20,lo8(0)
 4562 0434 50E0      		ldi r21,hi8(0)
 4563 0436 8CA5      		ldd r24,Y+44
 4564 0438 9DA5      		ldd r25,Y+45
 4565 043a AEA5      		ldd r26,Y+46
 4566 043c BFA5      		ldd r27,Y+47
 4567 043e 280F      		add r18,r24
 4568 0440 391F      		adc r19,r25
 4569 0442 4A1F      		adc r20,r26
 4570 0444 5B1F      		adc r21,r27
 4571 0446 D701      		movw r26,r14
 4572 0448 5296      		adiw r26,18
 4573 044a 2D93      		st X+,r18
 4574 044c 3D93      		st X+,r19
 4575 044e 4D93      		st X+,r20
 4576 0450 5C93      		st X,r21
 4577 0452 5597      		sbiw r26,18+3
 4578               	.LBE32:
 4579               	.LSM391:
 4580 0454 B701      		movw r22,r14
 4581 0456 625D      		subi r22,lo8(-(46))
 4582 0458 7F4F      		sbci r23,hi8(-(46))
 4583 045a 1196      		adiw r26,1
 4584 045c 8C91      		ld r24,X
 4585 045e 01E0      		ldi r16,lo8(1)
 4586 0460 0E94 0000 		call disk_read
 4587               	.LBB33:
 4588 0464 8823      		tst r24
 4589 0466 01F0      		breq .+2
 4590 0468 00C0      		rjmp .L215
 4591 046a ECE2      		ldi r30,lo8(556)
 4592 046c F2E0      		ldi r31,hi8(556)
 4593 046e EE0E      		add r14,r30
 4594 0470 FF1E      		adc r15,r31
 4595 0472 D701      		movw r26,r14
 4596 0474 8D91      		ld r24,X+
 4597 0476 9C91      		ld r25,X
 4598 0478 E4ED      		ldi r30,lo8(-556)
 4599 047a FDEF      		ldi r31,hi8(-556)
 4600 047c EE0E      		add r14,r30
 4601 047e FF1E      		adc r15,r31
 4602 0480 8555      		subi r24,lo8(-21931)
 4603 0482 9A4A      		sbci r25,hi8(-21931)
 4604 0484 01F0      		breq .+2
 4605 0486 00C0      		rjmp .L215
 4606 0488 F701      		movw r30,r14
 4607 048a 86A5      		ldd r24,Z+46
 4608 048c 97A5      		ldd r25,Z+47
 4609 048e A0A9      		ldd r26,Z+48
 4610 0490 B1A9      		ldd r27,Z+49
 4611 0492 8255      		subi r24,lo8(1096897106)
 4612 0494 9245      		sbci r25,hi8(1096897106)
 4613 0496 A146      		sbci r26,hlo8(1096897106)
 4614 0498 B144      		sbci r27,hhi8(1096897106)
 4615 049a 01F4      		brne .L215
 4616 049c 22E1      		ldi r18,lo8(530)
 4617 049e 32E0      		ldi r19,hi8(530)
 4618 04a0 E20E      		add r14,r18
 4619 04a2 F31E      		adc r15,r19
 4620 04a4 F701      		movw r30,r14
 4621 04a6 8081      		ld r24,Z
 4622 04a8 9181      		ldd r25,Z+1
 4623 04aa A281      		ldd r26,Z+2
 4624 04ac B381      		ldd r27,Z+3
 4625 04ae 2EEE      		ldi r18,lo8(-530)
 4626 04b0 3DEF      		ldi r19,hi8(-530)
 4627 04b2 E20E      		add r14,r18
 4628 04b4 F31E      		adc r15,r19
 4629 04b6 8257      		subi r24,lo8(1631679090)
 4630 04b8 9247      		sbci r25,hi8(1631679090)
 4631 04ba A144      		sbci r26,hlo8(1631679090)
 4632 04bc B146      		sbci r27,hhi8(1631679090)
 4633 04be 01F4      		brne .L215
 4634               	.LSM392:
 4635 04c0 4AE1      		ldi r20,lo8(538)
 4636 04c2 52E0      		ldi r21,hi8(538)
 4637 04c4 E40E      		add r14,r20
 4638 04c6 F51E      		adc r15,r21
 4639 04c8 F701      		movw r30,r14
 4640 04ca 8081      		ld r24,Z
 4641 04cc 9181      		ldd r25,Z+1
 4642 04ce A281      		ldd r26,Z+2
 4643 04d0 B381      		ldd r27,Z+3
 4644 04d2 26EE      		ldi r18,lo8(-538)
 4645 04d4 3DEF      		ldi r19,hi8(-538)
 4646 04d6 E20E      		add r14,r18
 4647 04d8 F31E      		adc r15,r19
 4648 04da F701      		movw r30,r14
 4649 04dc 8287      		std Z+10,r24
 4650 04de 9387      		std Z+11,r25
 4651 04e0 A487      		std Z+12,r26
 4652 04e2 B587      		std Z+13,r27
 4653               	.LSM393:
 4654 04e4 26E1      		ldi r18,lo8(534)
 4655 04e6 32E0      		ldi r19,hi8(534)
 4656 04e8 E20E      		add r14,r18
 4657 04ea F31E      		adc r15,r19
 4658 04ec F701      		movw r30,r14
 4659 04ee 8081      		ld r24,Z
 4660 04f0 9181      		ldd r25,Z+1
 4661 04f2 A281      		ldd r26,Z+2
 4662 04f4 B381      		ldd r27,Z+3
 4663 04f6 2AEE      		ldi r18,lo8(-534)
 4664 04f8 3DEF      		ldi r19,hi8(-534)
 4665 04fa E20E      		add r14,r18
 4666 04fc F31E      		adc r15,r19
 4667 04fe F701      		movw r30,r14
 4668 0500 8687      		std Z+14,r24
 4669 0502 9787      		std Z+15,r25
 4670 0504 A08B      		std Z+16,r26
 4671 0506 B18B      		std Z+17,r27
 4672               	.LVL447:
 4673               	.L215:
 4674               	.LSM394:
 4675 0508 D701      		movw r26,r14
 4676 050a 1C93      		st X,r17
 4677               	.LSM395:
 4678 050c 8091 0000 		lds r24,Fsid
 4679 0510 9091 0000 		lds r25,(Fsid)+1
 4680 0514 0196      		adiw r24,1
 4681 0516 9093 0000 		sts (Fsid)+1,r25
 4682 051a 8093 0000 		sts Fsid,r24
 4683 051e 1796      		adiw r26,6+1
 4684 0520 9C93      		st X,r25
 4685 0522 8E93      		st -X,r24
 4686 0524 1697      		sbiw r26,6
 4687               	.LSM396:
 4688 0526 F701      		movw r30,r14
 4689 0528 12A6      		std Z+42,__zero_reg__
 4690 052a 13A6      		std Z+43,__zero_reg__
 4691 052c 14A6      		std Z+44,__zero_reg__
 4692 052e 15A6      		std Z+45,__zero_reg__
 4693               	.LSM397:
 4694 0530 1482      		std Z+4,__zero_reg__
 4695 0532 00C0      		rjmp .L199
 4696               	.LVL448:
 4697               	.L200:
 4698 0534 5AE0      		ldi r21,lo8(10)
 4699 0536 B52E      		mov r11,r21
 4700               	.LVL449:
 4701 0538 00C0      		rjmp .L196
 4702               	.LVL450:
 4703               	.L199:
 4704 053a BB24      		clr r11
 4705               	.LVL451:
 4706 053c 00C0      		rjmp .L196
 4707               	.LVL452:
 4708               	.L205:
 4709 053e 4DE0      		ldi r20,lo8(13)
 4710 0540 B42E      		mov r11,r20
 4711               	.LVL453:
 4712               	.L196:
 4713               	.LBE33:
 4714               	.LBE34:
 4715               	.LSM398:
 4716 0542 CE01      		movw r24,r28
 4717               	.LVL454:
 4718 0544 0196      		adiw r24,1
 4719 0546 9AA3      		std Y+34,r25
 4720 0548 89A3      		std Y+33,r24
 4721               	.LSM399:
 4722 054a BB20      		tst r11
 4723 054c 01F0      		breq .+2
 4724 054e 00C0      		rjmp .L216
 4725               	.LBB35:
 4726               	.LBB36:
 4727               	.LSM400:
 4728 0550 ACA9      		ldd r26,Y+52
 4729 0552 BDA9      		ldd r27,Y+53
 4730 0554 8C91      		ld r24,X
 4731 0556 8F32      		cpi r24,lo8(47)
 4732 0558 01F0      		breq .L217
 4733 055a 8C35      		cpi r24,lo8(92)
 4734 055c 01F4      		brne .L218
 4735               	.L217:
 4736               	.LSM401:
 4737 055e ECA9      		ldd r30,Y+52
 4738 0560 FDA9      		ldd r31,Y+53
 4739               	.LVL455:
 4740 0562 3196      		adiw r30,1
 4741 0564 FDAB      		std Y+53,r31
 4742 0566 ECAB      		std Y+52,r30
 4743               	.LVL456:
 4744               	.L218:
 4745               	.LSM402:
 4746 0568 1B8A      		std Y+19,__zero_reg__
 4747 056a 1C8A      		std Y+20,__zero_reg__
 4748 056c 1D8A      		std Y+21,__zero_reg__
 4749 056e 1E8A      		std Y+22,__zero_reg__
 4750               	.LSM403:
 4751 0570 ACA9      		ldd r26,Y+52
 4752 0572 BDA9      		ldd r27,Y+53
 4753 0574 8C91      		ld r24,X
 4754 0576 8032      		cpi r24,lo8(32)
 4755 0578 00F4      		brsh .L272
 4756               	.LBE36:
 4757               	.LSM404:
 4758 057a CE01      		movw r24,r28
 4759 057c 0D96      		adiw r24,13
 4760 057e 60E0      		ldi r22,lo8(0)
 4761 0580 70E0      		ldi r23,hi8(0)
 4762 0582 0E94 0000 		call dir_sdi
 4763               	.LVL457:
 4764 0586 B82E      		mov r11,r24
 4765               	.LBB51:
 4766               	.LSM405:
 4767 0588 18A2      		std Y+32,__zero_reg__
 4768 058a 1F8E      		std Y+31,__zero_reg__
 4769 058c 00C0      		rjmp .L216
 4770               	.LVL458:
 4771               	.L220:
 4772               	.LBB37:
 4773               	.LBB39:
 4774               	.LSM406:
 4775 058e ECA9      		ldd r30,Y+52
 4776 0590 FDA9      		ldd r31,Y+53
 4777               	.LVL459:
 4778 0592 3196      		adiw r30,1
 4779 0594 FDAB      		std Y+53,r31
 4780 0596 ECAB      		std Y+52,r30
 4781               	.LVL460:
 4782 0598 00C0      		rjmp .L277
 4783               	.LVL461:
 4784               	.L272:
 4785               	.LBE39:
 4786               	.LBE37:
 4787               	.LBB43:
 4788               	.LSM407:
 4789 059a 3DE0      		ldi r19,lo8(13)
 4790 059c A32E      		mov r10,r19
 4791 059e B12C      		mov r11,__zero_reg__
 4792               	.LVL462:
 4793 05a0 AC0E      		add r10,r28
 4794 05a2 BD1E      		adc r11,r29
 4795               	.LBE43:
 4796               	.LBB48:
 4797               	.LBB38:
 4798               	.LSM408:
 4799 05a4 25E0      		ldi r18,lo8(5)
 4800 05a6 922E      		mov r9,r18
 4801               	.LVL463:
 4802               	.L277:
 4803               	.LSM409:
 4804 05a8 ACA9      		ldd r26,Y+52
 4805 05aa BDA9      		ldd r27,Y+53
 4806 05ac 8C91      		ld r24,X
 4807 05ae 8F32      		cpi r24,lo8(47)
 4808 05b0 01F0      		breq .L220
 4809 05b2 8C35      		cpi r24,lo8(92)
 4810 05b4 01F0      		breq .L220
 4811               	.LSM410:
 4812 05b6 09A1      		ldd r16,Y+33
 4813 05b8 1AA1      		ldd r17,Y+34
 4814               	.LSM411:
 4815 05ba C801      		movw r24,r16
 4816 05bc 60E2      		ldi r22,lo8(32)
 4817 05be 70E0      		ldi r23,hi8(32)
 4818 05c0 4BE0      		ldi r20,lo8(11)
 4819 05c2 50E0      		ldi r21,hi8(11)
 4820 05c4 0E94 0000 		call mem_set
 4821               	.LVL464:
 4822 05c8 40E0      		ldi r20,lo8(0)
 4823 05ca 50E0      		ldi r21,hi8(0)
 4824               	.LVL465:
 4825 05cc EE24      		clr r14
 4826 05ce FF24      		clr r15
 4827               	.LVL466:
 4828 05d0 98E0      		ldi r25,lo8(8)
 4829 05d2 C92E      		mov r12,r25
 4830 05d4 D12C      		mov r13,__zero_reg__
 4831               	.LVL467:
 4832 05d6 A0E0      		ldi r26,lo8(0)
 4833               	.LVL468:
 4834               	.L278:
 4835               	.LSM412:
 4836 05d8 ECA9      		ldd r30,Y+52
 4837 05da FDA9      		ldd r31,Y+53
 4838 05dc EE0D      		add r30,r14
 4839 05de FF1D      		adc r31,r15
 4840 05e0 2081      		ld r18,Z
 4841 05e2 0894      		sec
 4842 05e4 E11C      		adc r14,__zero_reg__
 4843 05e6 F11C      		adc r15,__zero_reg__
 4844               	.LSM413:
 4845 05e8 2132      		cpi r18,lo8(33)
 4846 05ea 00F4      		brsh .+2
 4847 05ec 00C0      		rjmp .L221
 4848 05ee 2F32      		cpi r18,lo8(47)
 4849 05f0 01F4      		brne .+2
 4850 05f2 00C0      		rjmp .L222
 4851 05f4 2C35      		cpi r18,lo8(92)
 4852 05f6 01F4      		brne .+2
 4853 05f8 00C0      		rjmp .L222
 4854               	.LSM414:
 4855 05fa 2E32      		cpi r18,lo8(46)
 4856 05fc 01F0      		breq .L223
 4857 05fe 4C15      		cp r20,r12
 4858 0600 5D05      		cpc r21,r13
 4859 0602 00F0      		brlo .L224
 4860               	.L223:
 4861               	.LSM415:
 4862 0604 B8E0      		ldi r27,lo8(8)
 4863 0606 CB16      		cp r12,r27
 4864 0608 D104      		cpc r13,__zero_reg__
 4865 060a 01F0      		breq .+2
 4866 060c 00C0      		rjmp .L225
 4867 060e 2E32      		cpi r18,lo8(46)
 4868 0610 01F0      		breq .+2
 4869 0612 00C0      		rjmp .L225
 4870               	.LSM416:
 4871 0614 AA0F      		lsl r26
 4872 0616 AA0F      		lsl r26
 4873 0618 48E0      		ldi r20,lo8(8)
 4874 061a 50E0      		ldi r21,hi8(8)
 4875 061c 8BE0      		ldi r24,lo8(11)
 4876 061e C82E      		mov r12,r24
 4877 0620 D12C      		mov r13,__zero_reg__
 4878 0622 00C0      		rjmp .L278
 4879               	.L224:
 4880               	.LSM417:
 4881 0624 27FD      		sbrc r18,7
 4882               	.LSM418:
 4883 0626 A360      		ori r26,lo8(3)
 4884               	.L227:
 4885               	.LSM419:
 4886 0628 822F      		mov r24,r18
 4887 062a 8158      		subi r24,lo8(-(127))
 4888 062c 8F31      		cpi r24,lo8(31)
 4889 062e 00F0      		brlo .L228
 4890 0630 8F55      		subi r24,lo8(-(-95))
 4891 0632 8D31      		cpi r24,lo8(29)
 4892 0634 00F4      		brsh .L229
 4893               	.L228:
 4894               	.LSM420:
 4895 0636 ECA9      		ldd r30,Y+52
 4896 0638 FDA9      		ldd r31,Y+53
 4897 063a EE0D      		add r30,r14
 4898 063c FF1D      		adc r31,r15
 4899 063e 3081      		ld r19,Z
 4900               	.LSM421:
 4901 0640 832F      		mov r24,r19
 4902 0642 8054      		subi r24,lo8(-(-64))
 4903 0644 8F33      		cpi r24,lo8(63)
 4904 0646 00F0      		brlo .L230
 4905 0648 8054      		subi r24,lo8(-(-64))
 4906 064a 8D37      		cpi r24,lo8(125)
 4907 064c 00F0      		brlo .+2
 4908 064e 00C0      		rjmp .L225
 4909               	.L230:
 4910 0650 C601      		movw r24,r12
 4911 0652 0197      		sbiw r24,1
 4912 0654 4817      		cp r20,r24
 4913 0656 5907      		cpc r21,r25
 4914 0658 00F0      		brlo .+2
 4915 065a 00C0      		rjmp .L225
 4916               	.LSM422:
 4917 065c 0894      		sec
 4918 065e E11C      		adc r14,__zero_reg__
 4919 0660 F11C      		adc r15,__zero_reg__
 4920               	.LSM423:
 4921 0662 F801      		movw r30,r16
 4922 0664 E40F      		add r30,r20
 4923 0666 F51F      		adc r31,r21
 4924 0668 2083      		st Z,r18
 4925 066a CA01      		movw r24,r20
 4926 066c 0196      		adiw r24,1
 4927               	.LVL469:
 4928               	.LSM424:
 4929 066e F801      		movw r30,r16
 4930 0670 E80F      		add r30,r24
 4931 0672 F91F      		adc r31,r25
 4932 0674 3083      		st Z,r19
 4933 0676 AC01      		movw r20,r24
 4934 0678 00C0      		rjmp .L279
 4935               	.LVL470:
 4936               	.L229:
 4937               	.LSM425:
 4938 067a 622F      		mov r22,r18
 4939 067c 70E0      		ldi r23,lo8(0)
 4940 067e E0E0      		ldi r30,lo8(.LC0)
 4941 0680 F0E0      		ldi r31,hi8(.LC0)
 4942               	.LVL471:
 4943 0682 00C0      		rjmp .L231
 4944               	.L233:
 4945               	.LBB40:
 4946               	.LBB41:
 4947               	.LSM426:
 4948 0684 3196      		adiw r30,1
 4949               	.L231:
 4950 0686 8081      		ld r24,Z
 4951 0688 8823      		tst r24
 4952 068a 01F0      		breq .L232
 4953 068c 90E0      		ldi r25,lo8(0)
 4954 068e 8617      		cp r24,r22
 4955 0690 9707      		cpc r25,r23
 4956 0692 01F4      		brne .L233
 4957 0694 00C0      		rjmp .L225
 4958               	.L232:
 4959               	.LBE41:
 4960               	.LBE40:
 4961               	.LSM427:
 4962 0696 822F      		mov r24,r18
 4963 0698 8154      		subi r24,lo8(-(-65))
 4964 069a 8A31      		cpi r24,lo8(26)
 4965 069c 00F4      		brsh .L234
 4966               	.LSM428:
 4967 069e A260      		ori r26,lo8(2)
 4968 06a0 00C0      		rjmp .L235
 4969               	.L234:
 4970               	.LSM429:
 4971 06a2 822F      		mov r24,r18
 4972 06a4 8156      		subi r24,lo8(-(-97))
 4973 06a6 8A31      		cpi r24,lo8(26)
 4974 06a8 00F4      		brsh .L235
 4975               	.LSM430:
 4976 06aa A160      		ori r26,lo8(1)
 4977 06ac 2052      		subi r18,lo8(-(-32))
 4978               	.L235:
 4979               	.LSM431:
 4980 06ae F801      		movw r30,r16
 4981               	.LVL472:
 4982 06b0 E40F      		add r30,r20
 4983 06b2 F51F      		adc r31,r21
 4984 06b4 2083      		st Z,r18
 4985               	.LVL473:
 4986               	.L279:
 4987 06b6 4F5F      		subi r20,lo8(-(1))
 4988 06b8 5F4F      		sbci r21,hi8(-(1))
 4989 06ba 00C0      		rjmp .L278
 4990               	.L221:
 4991 06bc 64E0      		ldi r22,lo8(4)
 4992               	.LVL474:
 4993               	.L269:
 4994               	.LSM432:
 4995 06be 452B      		or r20,r21
 4996 06c0 01F4      		brne .+2
 4997 06c2 00C0      		rjmp .L225
 4998               	.LSM433:
 4999 06c4 F801      		movw r30,r16
 5000 06c6 8081      		ld r24,Z
 5001 06c8 853E      		cpi r24,lo8(-27)
 5002 06ca 01F4      		brne .L236
 5003 06cc 9082      		st Z,r9
 5004               	.L236:
 5005               	.LSM434:
 5006 06ce F8E0      		ldi r31,lo8(8)
 5007 06d0 CF16      		cp r12,r31
 5008 06d2 D104      		cpc r13,__zero_reg__
 5009 06d4 01F4      		brne .L237
 5010 06d6 AA0F      		lsl r26
 5011 06d8 AA0F      		lsl r26
 5012               	.L237:
 5013               	.LSM435:
 5014 06da 2A2F      		mov r18,r26
 5015 06dc 30E0      		ldi r19,lo8(0)
 5016               	.LVL475:
 5017 06de C901      		movw r24,r18
 5018 06e0 8370      		andi r24,lo8(3)
 5019 06e2 9070      		andi r25,hi8(3)
 5020 06e4 0197      		sbiw r24,1
 5021 06e6 01F4      		brne .L238
 5022 06e8 6061      		ori r22,lo8(16)
 5023               	.L238:
 5024               	.LSM436:
 5025 06ea 2C70      		andi r18,lo8(12)
 5026 06ec 3070      		andi r19,hi8(12)
 5027 06ee 2430      		cpi r18,4
 5028 06f0 3105      		cpc r19,__zero_reg__
 5029 06f2 01F4      		brne .L239
 5030 06f4 6860      		ori r22,lo8(8)
 5031               	.L239:
 5032               	.LSM437:
 5033 06f6 D801      		movw r26,r16
 5034               	.LVL476:
 5035 06f8 1B96      		adiw r26,11
 5036 06fa 6C93      		st X,r22
 5037               	.LBE38:
 5038               	.LBE48:
 5039               	.LBB49:
 5040               	.LSM438:
 5041 06fc C501      		movw r24,r10
 5042 06fe 60E0      		ldi r22,lo8(0)
 5043 0700 70E0      		ldi r23,hi8(0)
 5044               	.LVL477:
 5045 0702 0E94 0000 		call dir_sdi
 5046               	.LVL478:
 5047               	.L280:
 5048 0706 482F      		mov r20,r24
 5049               	.LVL479:
 5050               	.LBB44:
 5051               	.LSM439:
 5052 0708 8823      		tst r24
 5053 070a 01F4      		brne .L240
 5054               	.LVL480:
 5055               	.LBE44:
 5056               	.LSM440:
 5057 070c 4B8D      		ldd r20,Y+27
 5058 070e 5C8D      		ldd r21,Y+28
 5059 0710 6D8D      		ldd r22,Y+29
 5060 0712 7E8D      		ldd r23,Y+30
 5061 0714 8D85      		ldd r24,Y+13
 5062 0716 9E85      		ldd r25,Y+14
 5063               	.LVL481:
 5064 0718 0E94 0000 		call move_window
 5065 071c 482F      		mov r20,r24
 5066               	.LVL482:
 5067               	.LBB47:
 5068               	.LSM441:
 5069 071e 8823      		tst r24
 5070 0720 01F4      		brne .L240
 5071               	.LVL483:
 5072               	.LSM442:
 5073 0722 EF8D      		ldd r30,Y+31
 5074 0724 F8A1      		ldd r31,Y+32
 5075               	.LVL484:
 5076               	.LSM443:
 5077 0726 8081      		ld r24,Z
 5078               	.LVL485:
 5079 0728 8823      		tst r24
 5080 072a 01F4      		brne .L241
 5081 072c 44E0      		ldi r20,lo8(4)
 5082 072e 00C0      		rjmp .L240
 5083               	.L241:
 5084               	.LSM444:
 5085 0730 8385      		ldd r24,Z+11
 5086 0732 83FD      		sbrc r24,3
 5087 0734 00C0      		rjmp .L242
 5088 0736 89A1      		ldd r24,Y+33
 5089               	.LVL486:
 5090 0738 9AA1      		ldd r25,Y+34
 5091               	.LVL487:
 5092 073a 9C01      		movw r18,r24
 5093               	.LVL488:
 5094 073c D901      		movw r26,r18
 5095               	.LVL489:
 5096 073e 2BE0      		ldi r18,lo8(11)
 5097 0740 30E0      		ldi r19,hi8(11)
 5098               	.LVL490:
 5099               	.L243:
 5100               	.LBB45:
 5101               	.LBB46:
 5102               	.LSM445:
 5103 0742 2150      		subi r18,lo8(-(-1))
 5104 0744 3040      		sbci r19,hi8(-(-1))
 5105 0746 5FEF      		ldi r21,hi8(-1)
 5106 0748 2F3F      		cpi r18,lo8(-1)
 5107 074a 3507      		cpc r19,r21
 5108 074c 01F0      		breq .L240
 5109 074e 9081      		ld r25,Z
 5110               	.LVL491:
 5111 0750 8C91      		ld r24,X
 5112 0752 9817      		cp r25,r24
 5113 0754 01F4      		brne .L242
 5114 0756 3196      		adiw r30,1
 5115               	.LVL492:
 5116 0758 1196      		adiw r26,1
 5117 075a 00C0      		rjmp .L243
 5118               	.LVL493:
 5119               	.L242:
 5120               	.LBE46:
 5121               	.LBE45:
 5122               	.LBE47:
 5123               	.LSM446:
 5124 075c C501      		movw r24,r10
 5125 075e 60E0      		ldi r22,lo8(0)
 5126 0760 70E0      		ldi r23,hi8(0)
 5127 0762 0E94 0000 		call dir_next
 5128               	.LVL494:
 5129 0766 00C0      		rjmp .L280
 5130               	.LVL495:
 5131               	.L240:
 5132               	.LBE49:
 5133               	.LSM447:
 5134 0768 E9A1      		ldd r30,Y+33
 5135 076a FAA1      		ldd r31,Y+34
 5136               	.LVL496:
 5137 076c 8385      		ldd r24,Z+11
 5138               	.LVL497:
 5139               	.LSM448:
 5140 076e 4423      		tst r20
 5141 0770 01F0      		breq .L245
 5142 0772 B42E      		mov r11,r20
 5143               	.LSM449:
 5144 0774 94E0      		ldi r25,lo8(4)
 5145               	.LVL498:
 5146 0776 4917      		cp r20,r25
 5147 0778 01F4      		brne .L246
 5148               	.LSM450:
 5149 077a 82FF      		sbrs r24,2
 5150 077c 00C0      		rjmp .L247
 5151 077e 00C0      		rjmp .L216
 5152               	.LVL499:
 5153               	.L245:
 5154               	.LSM451:
 5155 0780 82FD      		sbrc r24,2
 5156 0782 00C0      		rjmp .L246
 5157               	.LSM452:
 5158 0784 EF8D      		ldd r30,Y+31
 5159 0786 F8A1      		ldd r31,Y+32
 5160               	.LVL500:
 5161               	.LSM453:
 5162 0788 8385      		ldd r24,Z+11
 5163               	.LVL501:
 5164 078a 84FF      		sbrs r24,4
 5165 078c 00C0      		rjmp .L247
 5166               	.LBB50:
 5167               	.LBB42:
 5168               	.LSM454:
 5169 078e ACA9      		ldd r26,Y+52
 5170 0790 BDA9      		ldd r27,Y+53
 5171               	.LVL502:
 5172 0792 AE0D      		add r26,r14
 5173 0794 BF1D      		adc r27,r15
 5174 0796 BDAB      		std Y+53,r27
 5175 0798 ACAB      		std Y+52,r26
 5176               	.LVL503:
 5177               	.LBE42:
 5178               	.LBE50:
 5179               	.LSM455:
 5180 079a 8489      		ldd r24,Z+20
 5181 079c 9589      		ldd r25,Z+21
 5182 079e A0E0      		ldi r26,lo8(0)
 5183 07a0 B0E0      		ldi r27,hi8(0)
 5184 07a2 DC01      		movw r26,r24
 5185 07a4 9927      		clr r25
 5186 07a6 8827      		clr r24
 5187               	.LVL504:
 5188 07a8 228D      		ldd r18,Z+26
 5189 07aa 338D      		ldd r19,Z+27
 5190               	.LVL505:
 5191 07ac 40E0      		ldi r20,lo8(0)
 5192 07ae 50E0      		ldi r21,hi8(0)
 5193               	.LVL506:
 5194 07b0 822B      		or r24,r18
 5195 07b2 932B      		or r25,r19
 5196 07b4 A42B      		or r26,r20
 5197 07b6 B52B      		or r27,r21
 5198 07b8 8B8B      		std Y+19,r24
 5199 07ba 9C8B      		std Y+20,r25
 5200 07bc AD8B      		std Y+21,r26
 5201 07be BE8B      		std Y+22,r27
 5202 07c0 00C0      		rjmp .L277
 5203               	.LVL507:
 5204               	.L225:
 5205 07c2 B6E0      		ldi r27,lo8(6)
 5206 07c4 BB2E      		mov r11,r27
 5207 07c6 00C0      		rjmp .L216
 5208               	.LVL508:
 5209               	.L246:
 5210 07c8 B42E      		mov r11,r20
 5211 07ca 00C0      		rjmp .L216
 5212               	.LVL509:
 5213               	.L247:
 5214 07cc A5E0      		ldi r26,lo8(5)
 5215 07ce BA2E      		mov r11,r26
 5216               	.LVL510:
 5217               	.L216:
 5218               	.LBE51:
 5219               	.LBE35:
 5220               	.LSM456:
 5221 07d0 EF8D      		ldd r30,Y+31
 5222 07d2 F8A1      		ldd r31,Y+32
 5223               	.LVL511:
 5224 07d4 F9AB      		std Y+49,r31
 5225 07d6 E8AB      		std Y+48,r30
 5226               	.LVL512:
 5227               	.LSM457:
 5228 07d8 BB20      		tst r11
 5229 07da 01F4      		brne .L248
 5230               	.LSM458:
 5231 07dc EF2B      		or r30,r31
 5232 07de 01F4      		brne .L248
 5233 07e0 F6E0      		ldi r31,lo8(6)
 5234 07e2 BF2E      		mov r11,r31
 5235               	.LVL513:
 5236               	.L248:
 5237               	.LSM459:
 5238 07e4 FBA5      		ldd r31,Y+43
 5239 07e6 2F2F      		mov r18,r31
 5240               	.LVL514:
 5241 07e8 30E0      		ldi r19,lo8(0)
 5242               	.LVL515:
 5243 07ea C901      		movw r24,r18
 5244               	.LVL516:
 5245 07ec 8C71      		andi r24,lo8(28)
 5246 07ee 9070      		andi r25,hi8(28)
 5247 07f0 892B      		or r24,r25
 5248 07f2 01F4      		brne .+2
 5249 07f4 00C0      		rjmp .L249
 5250               	.LBB52:
 5251               	.LSM460:
 5252 07f6 BB20      		tst r11
 5253 07f8 01F4      		brne .+2
 5254 07fa 00C0      		rjmp .L250
 5255               	.LSM461:
 5256 07fc 24E0      		ldi r18,lo8(4)
 5257 07fe B216      		cp r11,r18
 5258 0800 01F4      		brne .L251
 5259               	.LBB57:
 5260               	.LSM462:
 5261 0802 8E01      		movw r16,r28
 5262               	.LVL517:
 5263 0804 035F      		subi r16,lo8(-(13))
 5264 0806 1F4F      		sbci r17,hi8(-(13))
 5265 0808 C801      		movw r24,r16
 5266 080a 60E0      		ldi r22,lo8(0)
 5267 080c 70E0      		ldi r23,hi8(0)
 5268               	.LVL518:
 5269 080e 0E94 0000 		call dir_sdi
 5270               	.LVL519:
 5271 0812 B82E      		mov r11,r24
 5272               	.LBB60:
 5273               	.LSM463:
 5274 0814 8823      		tst r24
 5275 0816 01F4      		brne .L251
 5276               	.LVL520:
 5277               	.L273:
 5278               	.LBE60:
 5279               	.LSM464:
 5280 0818 4B8D      		ldd r20,Y+27
 5281 081a 5C8D      		ldd r21,Y+28
 5282 081c 6D8D      		ldd r22,Y+29
 5283 081e 7E8D      		ldd r23,Y+30
 5284 0820 8D85      		ldd r24,Y+13
 5285 0822 9E85      		ldd r25,Y+14
 5286               	.LVL521:
 5287 0824 0E94 0000 		call move_window
 5288 0828 B82E      		mov r11,r24
 5289               	.LBB59:
 5290               	.LSM465:
 5291 082a 8823      		tst r24
 5292 082c 01F4      		brne .L251
 5293               	.LVL522:
 5294               	.LSM466:
 5295 082e EF8D      		ldd r30,Y+31
 5296 0830 F8A1      		ldd r31,Y+32
 5297 0832 E081      		ld r30,Z
 5298               	.LVL523:
 5299               	.LSM467:
 5300 0834 E53E      		cpi r30,lo8(-27)
 5301 0836 01F4      		brne .+2
 5302 0838 00C0      		rjmp .L252
 5303 083a EE23      		tst r30
 5304 083c 01F4      		brne .+2
 5305 083e 00C0      		rjmp .L252
 5306               	.LBE59:
 5307               	.LSM468:
 5308 0840 C801      		movw r24,r16
 5309               	.LVL524:
 5310 0842 61E0      		ldi r22,lo8(1)
 5311 0844 70E0      		ldi r23,hi8(1)
 5312 0846 0E94 0000 		call dir_next
 5313               	.LVL525:
 5314 084a B82E      		mov r11,r24
 5315               	.LBB58:
 5316               	.LSM469:
 5317 084c 8823      		tst r24
 5318 084e 01F0      		breq .L273
 5319               	.LVL526:
 5320 0850 00C0      		rjmp .L251
 5321               	.L281:
 5322               	.LSM470:
 5323 0852 0F8D      		ldd r16,Y+31
 5324 0854 18A1      		ldd r17,Y+32
 5325               	.LVL527:
 5326               	.LSM471:
 5327 0856 C801      		movw r24,r16
 5328               	.LVL528:
 5329 0858 60E0      		ldi r22,lo8(0)
 5330 085a 70E0      		ldi r23,hi8(0)
 5331 085c 40E2      		ldi r20,lo8(32)
 5332 085e 50E0      		ldi r21,hi8(32)
 5333 0860 0E94 0000 		call mem_set
 5334               	.LSM472:
 5335 0864 69A1      		ldd r22,Y+33
 5336 0866 7AA1      		ldd r23,Y+34
 5337 0868 C801      		movw r24,r16
 5338 086a 4BE0      		ldi r20,lo8(11)
 5339 086c 50E0      		ldi r21,hi8(11)
 5340 086e 0E94 0000 		call mem_cpy
 5341               	.LSM473:
 5342 0872 ED85      		ldd r30,Y+13
 5343 0874 FE85      		ldd r31,Y+14
 5344 0876 81E0      		ldi r24,lo8(1)
 5345 0878 8483      		std Z+4,r24
 5346               	.LVL529:
 5347               	.L251:
 5348               	.LBE58:
 5349               	.LBE57:
 5350               	.LSM474:
 5351 087a 4F8D      		ldd r20,Y+31
 5352 087c 58A1      		ldd r21,Y+32
 5353               	.LVL530:
 5354 087e 59AB      		std Y+49,r21
 5355 0880 48AB      		std Y+48,r20
 5356               	.LVL531:
 5357               	.LSM475:
 5358 0882 BB20      		tst r11
 5359 0884 01F0      		breq .+2
 5360 0886 00C0      		rjmp .L254
 5361               	.LSM476:
 5362 0888 5BA5      		ldd r21,Y+43
 5363 088a 5860      		ori r21,lo8(8)
 5364 088c 5BA7      		std Y+43,r21
 5365               	.LVL532:
 5366 088e 00C0      		rjmp .L255
 5367               	.LVL533:
 5368               	.L250:
 5369               	.LSM477:
 5370 0890 A8A9      		ldd r26,Y+48
 5371 0892 B9A9      		ldd r27,Y+49
 5372               	.LVL534:
 5373 0894 1B96      		adiw r26,11
 5374 0896 8C91      		ld r24,X
 5375 0898 8171      		andi r24,lo8(17)
 5376 089a 01F0      		breq .+2
 5377 089c 00C0      		rjmp .L266
 5378               	.L256:
 5379               	.LSM478:
 5380 089e F2FD      		sbrc r31,2
 5381 08a0 00C0      		rjmp .L257
 5382               	.LVL535:
 5383               	.L255:
 5384               	.LSM479:
 5385 08a2 BBA5      		ldd r27,Y+43
 5386 08a4 B3FF      		sbrs r27,3
 5387 08a6 00C0      		rjmp .L258
 5388               	.LSM480:
 5389 08a8 0E94 0000 		call get_fattime
 5390               	.LVL536:
 5391               	.LSM481:
 5392 08ac E8A9      		ldd r30,Y+48
 5393 08ae F9A9      		ldd r31,Y+49
 5394 08b0 6687      		std Z+14,r22
 5395 08b2 7787      		std Z+15,r23
 5396 08b4 808B      		std Z+16,r24
 5397 08b6 918B      		std Z+17,r25
 5398               	.LVL537:
 5399               	.LSM482:
 5400 08b8 1386      		std Z+11,__zero_reg__
 5401               	.LSM483:
 5402 08ba A8A9      		ldd r26,Y+48
 5403 08bc B9A9      		ldd r27,Y+49
 5404 08be 5C96      		adiw r26,28
 5405 08c0 1D92      		st X+,__zero_reg__
 5406 08c2 1D92      		st X+,__zero_reg__
 5407 08c4 1D92      		st X+,__zero_reg__
 5408 08c6 1C92      		st X,__zero_reg__
 5409 08c8 5F97      		sbiw r26,28+3
 5410               	.LSM484:
 5411 08ca 5496      		adiw r26,20
 5412 08cc 8D91      		ld r24,X+
 5413 08ce 9C91      		ld r25,X
 5414 08d0 5597      		sbiw r26,20+1
 5415 08d2 A0E0      		ldi r26,lo8(0)
 5416 08d4 B0E0      		ldi r27,hi8(0)
 5417 08d6 7C01      		movw r14,r24
 5418 08d8 DD24      		clr r13
 5419 08da CC24      		clr r12
 5420               	.LVL538:
 5421 08dc E8A9      		ldd r30,Y+48
 5422 08de F9A9      		ldd r31,Y+49
 5423 08e0 828D      		ldd r24,Z+26
 5424 08e2 938D      		ldd r25,Z+27
 5425 08e4 A0E0      		ldi r26,lo8(0)
 5426 08e6 B0E0      		ldi r27,hi8(0)
 5427 08e8 C82A      		or r12,r24
 5428 08ea D92A      		or r13,r25
 5429 08ec EA2A      		or r14,r26
 5430 08ee FB2A      		or r15,r27
 5431               	.LSM485:
 5432 08f0 138E      		std Z+27,__zero_reg__
 5433 08f2 128E      		std Z+26,__zero_reg__
 5434 08f4 158A      		std Z+21,__zero_reg__
 5435 08f6 148A      		std Z+20,__zero_reg__
 5436               	.LSM486:
 5437 08f8 ED85      		ldd r30,Y+13
 5438 08fa FE85      		ldd r31,Y+14
 5439 08fc 81E0      		ldi r24,lo8(1)
 5440 08fe 8483      		std Z+4,r24
 5441               	.LSM487:
 5442 0900 C114      		cp r12,__zero_reg__
 5443 0902 D104      		cpc r13,__zero_reg__
 5444 0904 E104      		cpc r14,__zero_reg__
 5445 0906 F104      		cpc r15,__zero_reg__
 5446 0908 01F4      		brne .+2
 5447 090a 00C0      		rjmp .L258
 5448               	.LSM488:
 5449 090c 2D84      		ldd r2,Y+13
 5450 090e 3E84      		ldd r3,Y+14
 5451 0910 D101      		movw r26,r2
 5452 0912 9A96      		adiw r26,42
 5453 0914 2D91      		ld r18,X+
 5454 0916 3D91      		ld r19,X+
 5455 0918 4D91      		ld r20,X+
 5456 091a 5C91      		ld r21,X
 5457 091c 9D97      		sbiw r26,42+3
 5458 091e 2FA3      		std Y+39,r18
 5459 0920 38A7      		std Y+40,r19
 5460 0922 49A7      		std Y+41,r20
 5461 0924 5AA7      		std Y+42,r21
 5462               	.LVL539:
 5463               	.LBB53:
 5464               	.LBB54:
 5465               	.LSM489:
 5466 0926 B1E0      		ldi r27,lo8(1)
 5467 0928 CB16      		cp r12,r27
 5468 092a D104      		cpc r13,__zero_reg__
 5469 092c E104      		cpc r14,__zero_reg__
 5470 092e F104      		cpc r15,__zero_reg__
 5471 0930 01F4      		brne .+2
 5472 0932 00C0      		rjmp .L259
 5473 0934 F101      		movw r30,r2
 5474 0936 8689      		ldd r24,Z+22
 5475 0938 9789      		ldd r25,Z+23
 5476 093a A08D      		ldd r26,Z+24
 5477 093c B18D      		ldd r27,Z+25
 5478 093e C816      		cp r12,r24
 5479 0940 D906      		cpc r13,r25
 5480 0942 EA06      		cpc r14,r26
 5481 0944 FB06      		cpc r15,r27
 5482 0946 00F0      		brlo .+2
 5483 0948 00C0      		rjmp .L259
 5484 094a 4601      		movw r8,r12
 5485 094c 5701      		movw r10,r14
 5486               	.LVL540:
 5487 094e 00C0      		rjmp .L260
 5488               	.LVL541:
 5489               	.L264:
 5490               	.LBE54:
 5491               	.LSM490:
 5492 0950 C101      		movw r24,r2
 5493 0952 B501      		movw r22,r10
 5494 0954 A401      		movw r20,r8
 5495 0956 0E94 0000 		call get_fat
 5496 095a 2B01      		movw r4,r22
 5497 095c 3C01      		movw r6,r24
 5498               	.LVL542:
 5499               	.LBB55:
 5500               	.LSM491:
 5501 095e 6115      		cp r22,__zero_reg__
 5502 0960 7105      		cpc r23,__zero_reg__
 5503 0962 8105      		cpc r24,__zero_reg__
 5504 0964 9105      		cpc r25,__zero_reg__
 5505 0966 01F4      		brne .+2
 5506 0968 00C0      		rjmp .L261
 5507               	.LVL543:
 5508               	.LSM492:
 5509 096a 6130      		cpi r22,lo8(1)
 5510 096c 7105      		cpc r23,__zero_reg__
 5511 096e 8105      		cpc r24,__zero_reg__
 5512 0970 9105      		cpc r25,__zero_reg__
 5513 0972 01F0      		breq .L259
 5514               	.LSM493:
 5515 0974 6F3F      		cpi r22,lo8(-1)
 5516 0976 2FEF      		ldi r18,hi8(-1)
 5517 0978 7207      		cpc r23,r18
 5518 097a 2FEF      		ldi r18,hlo8(-1)
 5519 097c 8207      		cpc r24,r18
 5520 097e 2FEF      		ldi r18,hhi8(-1)
 5521 0980 9207      		cpc r25,r18
 5522 0982 01F4      		brne .L262
 5523 0984 BB24      		clr r11
 5524 0986 B394      		inc r11
 5525 0988 00C0      		rjmp .L254
 5526               	.L262:
 5527               	.LBE55:
 5528               	.LSM494:
 5529 098a C101      		movw r24,r2
 5530 098c B501      		movw r22,r10
 5531 098e A401      		movw r20,r8
 5532 0990 00E0      		ldi r16,lo8(0)
 5533 0992 10E0      		ldi r17,hi8(0)
 5534 0994 20E0      		ldi r18,hlo8(0)
 5535 0996 30E0      		ldi r19,hhi8(0)
 5536               	.LVL544:
 5537 0998 0E94 0000 		call put_fat
 5538               	.LVL545:
 5539 099c B82E      		mov r11,r24
 5540               	.LBB56:
 5541               	.LSM495:
 5542 099e 8823      		tst r24
 5543 09a0 01F0      		breq .+2
 5544 09a2 00C0      		rjmp .L254
 5545               	.LVL546:
 5546               	.LSM496:
 5547 09a4 F101      		movw r30,r2
 5548 09a6 8685      		ldd r24,Z+14
 5549 09a8 9785      		ldd r25,Z+15
 5550 09aa A089      		ldd r26,Z+16
 5551 09ac B189      		ldd r27,Z+17
 5552               	.LVL547:
 5553 09ae 8F3F      		cpi r24,lo8(-1)
 5554 09b0 FFEF      		ldi r31,hi8(-1)
 5555 09b2 9F07      		cpc r25,r31
 5556 09b4 FFEF      		ldi r31,hlo8(-1)
 5557 09b6 AF07      		cpc r26,r31
 5558 09b8 FFEF      		ldi r31,hhi8(-1)
 5559 09ba BF07      		cpc r27,r31
 5560 09bc 01F0      		breq .L263
 5561               	.LSM497:
 5562 09be 0196      		adiw r24,1
 5563 09c0 A11D      		adc r26,__zero_reg__
 5564 09c2 B11D      		adc r27,__zero_reg__
 5565 09c4 F101      		movw r30,r2
 5566 09c6 8687      		std Z+14,r24
 5567 09c8 9787      		std Z+15,r25
 5568 09ca A08B      		std Z+16,r26
 5569 09cc B18B      		std Z+17,r27
 5570               	.LSM498:
 5571 09ce 21E0      		ldi r18,lo8(1)
 5572 09d0 2583      		std Z+5,r18
 5573               	.L263:
 5574 09d2 5301      		movw r10,r6
 5575 09d4 4201      		movw r8,r4
 5576               	.LVL548:
 5577               	.L260:
 5578               	.LSM499:
 5579 09d6 F101      		movw r30,r2
 5580 09d8 8689      		ldd r24,Z+22
 5581 09da 9789      		ldd r25,Z+23
 5582 09dc A08D      		ldd r26,Z+24
 5583 09de B18D      		ldd r27,Z+25
 5584 09e0 8816      		cp r8,r24
 5585 09e2 9906      		cpc r9,r25
 5586 09e4 AA06      		cpc r10,r26
 5587 09e6 BB06      		cpc r11,r27
 5588 09e8 00F4      		brsh .+2
 5589 09ea 00C0      		rjmp .L264
 5590 09ec 00C0      		rjmp .L261
 5591               	.LVL549:
 5592               	.L259:
 5593 09ee 72E0      		ldi r23,lo8(2)
 5594 09f0 B72E      		mov r11,r23
 5595 09f2 00C0      		rjmp .L254
 5596               	.LVL550:
 5597               	.L249:
 5598               	.LBE56:
 5599               	.LBE53:
 5600               	.LBE52:
 5601               	.LSM500:
 5602 09f4 BB20      		tst r11
 5603 09f6 01F0      		breq .+2
 5604 09f8 00C0      		rjmp .L254
 5605               	.LSM501:
 5606 09fa A8A9      		ldd r26,Y+48
 5607 09fc B9A9      		ldd r27,Y+49
 5608               	.LVL551:
 5609 09fe 1B96      		adiw r26,11
 5610 0a00 8C91      		ld r24,X
 5611 0a02 84FF      		sbrs r24,4
 5612 0a04 00C0      		rjmp .L265
 5613 0a06 64E0      		ldi r22,lo8(4)
 5614 0a08 B62E      		mov r11,r22
 5615               	.LVL552:
 5616 0a0a 00C0      		rjmp .L254
 5617               	.LVL553:
 5618               	.L265:
 5619               	.LSM502:
 5620 0a0c F1FF      		sbrs r31,1
 5621 0a0e 00C0      		rjmp .L258
 5622 0a10 80FD      		sbrc r24,0
 5623 0a12 00C0      		rjmp .L266
 5624               	.LVL554:
 5625               	.L258:
 5626               	.LSM503:
 5627 0a14 BBA5      		ldd r27,Y+43
 5628 0a16 B3FF      		sbrs r27,3
 5629 0a18 00C0      		rjmp .L267
 5630               	.LSM504:
 5631 0a1a B062      		ori r27,lo8(32)
 5632 0a1c BBA7      		std Y+43,r27
 5633               	.LVL555:
 5634               	.L267:
 5635               	.LSM505:
 5636 0a1e 6D85      		ldd r22,Y+13
 5637 0a20 7E85      		ldd r23,Y+14
 5638               	.LVL556:
 5639 0a22 FB01      		movw r30,r22
 5640 0a24 22A5      		ldd r18,Z+42
 5641 0a26 33A5      		ldd r19,Z+43
 5642 0a28 44A5      		ldd r20,Z+44
 5643 0a2a 55A5      		ldd r21,Z+45
 5644 0a2c AAA9      		ldd r26,Y+50
 5645 0a2e BBA9      		ldd r27,Y+51
 5646               	.LVL557:
 5647 0a30 5A96      		adiw r26,26
 5648 0a32 2D93      		st X+,r18
 5649 0a34 3D93      		st X+,r19
 5650 0a36 4D93      		st X+,r20
 5651 0a38 5C93      		st X,r21
 5652 0a3a 5D97      		sbiw r26,26+3
 5653               	.LSM506:
 5654 0a3c E8A9      		ldd r30,Y+48
 5655 0a3e F9A9      		ldd r31,Y+49
 5656 0a40 5F96      		adiw r26,30+1
 5657 0a42 FC93      		st X,r31
 5658 0a44 EE93      		st -X,r30
 5659 0a46 5E97      		sbiw r26,30
 5660               	.LSM507:
 5661 0a48 FBA5      		ldd r31,Y+43
 5662 0a4a 1496      		adiw r26,4
 5663 0a4c FC93      		st X,r31
 5664               	.LSM508:
 5665 0a4e A8A9      		ldd r26,Y+48
 5666 0a50 B9A9      		ldd r27,Y+49
 5667 0a52 5496      		adiw r26,20
 5668 0a54 8D91      		ld r24,X+
 5669 0a56 9C91      		ld r25,X
 5670 0a58 5597      		sbiw r26,20+1
 5671 0a5a A0E0      		ldi r26,lo8(0)
 5672 0a5c B0E0      		ldi r27,hi8(0)
 5673 0a5e DC01      		movw r26,r24
 5674 0a60 9927      		clr r25
 5675 0a62 8827      		clr r24
 5676 0a64 E8A9      		ldd r30,Y+48
 5677 0a66 F9A9      		ldd r31,Y+49
 5678 0a68 228D      		ldd r18,Z+26
 5679 0a6a 338D      		ldd r19,Z+27
 5680 0a6c 40E0      		ldi r20,lo8(0)
 5681 0a6e 50E0      		ldi r21,hi8(0)
 5682               	.LVL558:
 5683 0a70 822B      		or r24,r18
 5684 0a72 932B      		or r25,r19
 5685 0a74 A42B      		or r26,r20
 5686 0a76 B52B      		or r27,r21
 5687 0a78 EAA9      		ldd r30,Y+50
 5688 0a7a FBA9      		ldd r31,Y+51
 5689 0a7c 8687      		std Z+14,r24
 5690 0a7e 9787      		std Z+15,r25
 5691 0a80 A08B      		std Z+16,r26
 5692 0a82 B18B      		std Z+17,r27
 5693               	.LSM509:
 5694 0a84 E8A9      		ldd r30,Y+48
 5695 0a86 F9A9      		ldd r31,Y+49
 5696 0a88 848D      		ldd r24,Z+28
 5697 0a8a 958D      		ldd r25,Z+29
 5698 0a8c A68D      		ldd r26,Z+30
 5699 0a8e B78D      		ldd r27,Z+31
 5700 0a90 EAA9      		ldd r30,Y+50
 5701 0a92 FBA9      		ldd r31,Y+51
 5702 0a94 8287      		std Z+10,r24
 5703 0a96 9387      		std Z+11,r25
 5704 0a98 A487      		std Z+12,r26
 5705 0a9a B587      		std Z+13,r27
 5706               	.LSM510:
 5707 0a9c AAA9      		ldd r26,Y+50
 5708 0a9e BBA9      		ldd r27,Y+51
 5709 0aa0 1696      		adiw r26,6
 5710 0aa2 1D92      		st X+,__zero_reg__
 5711 0aa4 1D92      		st X+,__zero_reg__
 5712 0aa6 1D92      		st X+,__zero_reg__
 5713 0aa8 1C92      		st X,__zero_reg__
 5714 0aaa 1997      		sbiw r26,6+3
 5715               	.LSM511:
 5716 0aac EAA9      		ldd r30,Y+50
 5717 0aae FBA9      		ldd r31,Y+51
 5718 0ab0 168A      		std Z+22,__zero_reg__
 5719 0ab2 178A      		std Z+23,__zero_reg__
 5720 0ab4 108E      		std Z+24,__zero_reg__
 5721 0ab6 118E      		std Z+25,__zero_reg__
 5722               	.LSM512:
 5723 0ab8 7183      		std Z+1,r23
 5724 0aba 6083      		st Z,r22
 5725 0abc DB01      		movw r26,r22
 5726 0abe 1696      		adiw r26,6
 5727 0ac0 8D91      		ld r24,X+
 5728 0ac2 9C91      		ld r25,X
 5729 0ac4 1797      		sbiw r26,6+1
 5730 0ac6 9383      		std Z+3,r25
 5731 0ac8 8283      		std Z+2,r24
 5732 0aca BB24      		clr r11
 5733               	.LVL559:
 5734               	.L254:
 5735               	.LSM513:
 5736 0acc 8B2D      		mov r24,r11
 5737               	/* epilogue start */
 5738 0ace E596      		adiw r28,53
 5739 0ad0 0FB6      		in __tmp_reg__,__SREG__
 5740 0ad2 F894      		cli
 5741 0ad4 DEBF      		out __SP_H__,r29
 5742 0ad6 0FBE      		out __SREG__,__tmp_reg__
 5743 0ad8 CDBF      		out __SP_L__,r28
 5744 0ada CF91      		pop r28
 5745 0adc DF91      		pop r29
 5746 0ade 1F91      		pop r17
 5747               	.LVL560:
 5748 0ae0 0F91      		pop r16
 5749               	.LVL561:
 5750 0ae2 FF90      		pop r15
 5751 0ae4 EF90      		pop r14
 5752               	.LVL562:
 5753 0ae6 DF90      		pop r13
 5754 0ae8 CF90      		pop r12
 5755               	.LVL563:
 5756 0aea BF90      		pop r11
 5757               	.LVL564:
 5758 0aec AF90      		pop r10
 5759               	.LVL565:
 5760 0aee 9F90      		pop r9
 5761 0af0 8F90      		pop r8
 5762               	.LVL566:
 5763 0af2 7F90      		pop r7
 5764 0af4 6F90      		pop r6
 5765               	.LVL567:
 5766 0af6 5F90      		pop r5
 5767 0af8 4F90      		pop r4
 5768               	.LVL568:
 5769 0afa 3F90      		pop r3
 5770 0afc 2F90      		pop r2
 5771 0afe 0895      		ret
 5772               	.LVL569:
 5773               	.L257:
 5774               	.LSM514:
 5775 0b00 48E0      		ldi r20,lo8(8)
 5776 0b02 B42E      		mov r11,r20
 5777               	.LVL570:
 5778 0b04 00C0      		rjmp .L254
 5779               	.LVL571:
 5780               	.L266:
 5781 0b06 37E0      		ldi r19,lo8(7)
 5782 0b08 B32E      		mov r11,r19
 5783 0b0a 00C0      		rjmp .L254
 5784               	.LVL572:
 5785               	.L252:
 5786               	.LBB63:
 5787               	.LBB62:
 5788               	.LSM515:
 5789 0b0c 4B8D      		ldd r20,Y+27
 5790 0b0e 5C8D      		ldd r21,Y+28
 5791 0b10 6D8D      		ldd r22,Y+29
 5792 0b12 7E8D      		ldd r23,Y+30
 5793 0b14 8D85      		ldd r24,Y+13
 5794 0b16 9E85      		ldd r25,Y+14
 5795               	.LVL573:
 5796 0b18 0E94 0000 		call move_window
 5797               	.LVL574:
 5798 0b1c B82E      		mov r11,r24
 5799               	.LBB61:
 5800               	.LSM516:
 5801 0b1e 8823      		tst r24
 5802 0b20 01F0      		breq .+2
 5803 0b22 00C0      		rjmp .L251
 5804               	.LVL575:
 5805 0b24 00C0      		rjmp .L281
 5806               	.LVL576:
 5807               	.L261:
 5808               	.LBE61:
 5809               	.LBE62:
 5810               	.LSM517:
 5811 0b26 ED85      		ldd r30,Y+13
 5812 0b28 FE85      		ldd r31,Y+14
 5813 0b2a 0894      		sec
 5814 0b2c C108      		sbc r12,__zero_reg__
 5815 0b2e D108      		sbc r13,__zero_reg__
 5816 0b30 E108      		sbc r14,__zero_reg__
 5817 0b32 F108      		sbc r15,__zero_reg__
 5818               	.LVL577:
 5819 0b34 C286      		std Z+10,r12
 5820 0b36 D386      		std Z+11,r13
 5821 0b38 E486      		std Z+12,r14
 5822 0b3a F586      		std Z+13,r15
 5823               	.LSM518:
 5824 0b3c 8D85      		ldd r24,Y+13
 5825 0b3e 9E85      		ldd r25,Y+14
 5826 0b40 4FA1      		ldd r20,Y+39
 5827 0b42 58A5      		ldd r21,Y+40
 5828 0b44 69A5      		ldd r22,Y+41
 5829 0b46 7AA5      		ldd r23,Y+42
 5830 0b48 0E94 0000 		call move_window
 5831 0b4c B82E      		mov r11,r24
 5832               	.LBE63:
 5833               	.LSM519:
 5834 0b4e 8823      		tst r24
 5835 0b50 01F4      		brne .+2
 5836 0b52 00C0      		rjmp .L258
 5837               	.LVL578:
 5838 0b54 00C0      		rjmp .L254
 5839               	.LVL579:
 5840               	.L222:
 5841 0b56 60E0      		ldi r22,lo8(0)
 5842               	.LVL580:
 5843 0b58 00C0      		rjmp .L269
 5844               	.LFE157:
 5846               		.lcomm FatFs,2
 5847               		.lcomm Fsid,2
 6008               	.Letext0:
DEFINED SYMBOLS
                            *ABS*:00000000 ff.c
     /tmp/ccOAGkrL.s:2      *ABS*:0000003f __SREG__
     /tmp/ccOAGkrL.s:3      *ABS*:0000003e __SP_H__
     /tmp/ccOAGkrL.s:4      *ABS*:0000003d __SP_L__
     /tmp/ccOAGkrL.s:5      *ABS*:00000034 __CCP__
     /tmp/ccOAGkrL.s:6      *ABS*:00000000 __tmp_reg__
     /tmp/ccOAGkrL.s:7      *ABS*:00000001 __zero_reg__
     /tmp/ccOAGkrL.s:18     .text.mem_cpy:00000000 mem_cpy
     /tmp/ccOAGkrL.s:92     .text.mem_set:00000000 mem_set
     /tmp/ccOAGkrL.s:122    .text.clust2sect:00000000 clust2sect
     /tmp/ccOAGkrL.s:204    .text.f_mount:00000000 f_mount
                             .bss:00000000 FatFs
     /tmp/ccOAGkrL.s:247    .text.validate:00000000 validate
     /tmp/ccOAGkrL.s:286    .text.move_window:00000000 move_window
     /tmp/ccOAGkrL.s:449    .text.put_fat:00000000 put_fat
     /tmp/ccOAGkrL.s:773    .text.get_fat:00000000 get_fat
     /tmp/ccOAGkrL.s:1035   .text.create_chain:00000000 create_chain
     /tmp/ccOAGkrL.s:1350   .text.f_lseek:00000000 f_lseek
     /tmp/ccOAGkrL.s:1911   .text.dir_sdi:00000000 dir_sdi
     /tmp/ccOAGkrL.s:2141   .text.f_write:00000000 f_write
     /tmp/ccOAGkrL.s:2713   .text.dir_next:00000000 dir_next
     /tmp/ccOAGkrL.s:3052   .text.f_read:00000000 f_read
     /tmp/ccOAGkrL.s:3505   .text.check_fs:00000000 check_fs
     /tmp/ccOAGkrL.s:3590   .text.f_sync:00000000 f_sync
     /tmp/ccOAGkrL.s:3837   .text.f_close:00000000 f_close
     /tmp/ccOAGkrL.s:3871   .text.f_open:00000000 f_open
     /tmp/ccOAGkrL.s:5846   .bss:00000002 Fsid

UNDEFINED SYMBOLS
__mulsi3
disk_status
disk_write
disk_read
__udivmodsi4
get_fattime
disk_ioctl
disk_initialize
__do_copy_data
__do_clear_bss
