   1               		.file	"XPROGProtocol.c"
   2               	__SREG__ = 0x3f
   3               	__SP_H__ = 0x3e
   4               	__SP_L__ = 0x3d
   5               	__CCP__  = 0x34
   6               	__tmp_reg__ = 0
   7               	__zero_reg__ = 1
  15               	.Ltext0:
  16               		.section	.text.XPROGProtocol_SetMode,"ax",@progbits
  17               	.global	XPROGProtocol_SetMode
  19               	XPROGProtocol_SetMode:
  20               	.LFB114:
  21               	.LSM0:
  22 0000 DF93      		push r29
  23 0002 CF93      		push r28
  24 0004 0F92      		push __tmp_reg__
  25 0006 CDB7      		in r28,__SP_L__
  26 0008 DEB7      		in r29,__SP_H__
  27               	/* prologue: function */
  28               	/* frame size = 1 */
  29               	.LSM1:
  30 000a CE01      		movw r24,r28
  31 000c 0196      		adiw r24,1
  32 000e 61E0      		ldi r22,lo8(1)
  33 0010 70E0      		ldi r23,hi8(1)
  34 0012 40E0      		ldi r20,lo8(0)
  35 0014 50E0      		ldi r21,hi8(0)
  36 0016 0E94 0000 		call Endpoint_Read_Stream_LE
  37               	.LBB142:
  38               	.LBB143:
  39               	.LSM2:
  40 001a 8091 E800 		lds r24,232
  41 001e 8B77      		andi r24,lo8(123)
  42 0020 8093 E800 		sts 232,r24
  43               	.LBE143:
  44               	.LBE142:
  45               	.LBB144:
  46               	.LBB145:
  47               	.LSM3:
  48 0024 82E0      		ldi r24,lo8(2)
  49 0026 8093 E900 		sts 233,r24
  50               	.LBE145:
  51               	.LBE144:
  52               	.LBB146:
  53               	.LBB147:
  54               	.LSM4:
  55 002a 8091 EC00 		lds r24,236
  56 002e 8068      		ori r24,lo8(-128)
  57 0030 8093 EC00 		sts 236,r24
  58               	.LBE147:
  59               	.LBE146:
  60               	.LSM5:
  61 0034 9981      		ldd r25,Y+1
  62 0036 9093 0000 		sts XPROG_SelectedProtocol,r25
  63               	.LBB148:
  64               	.LBB149:
  65               	.LSM6:
  66 003a 81E5      		ldi r24,lo8(81)
  67 003c 8093 F100 		sts 241,r24
  68               	.LBE149:
  69               	.LBE148:
  70               	.LSM7:
  71 0040 9130      		cpi r25,lo8(1)
  72 0042 01F4      		brne .L2
  73 0044 80EC      		ldi r24,lo8(-64)
  74 0046 00C0      		rjmp .L3
  75               	.L2:
  76 0048 80E0      		ldi r24,lo8(0)
  77               	.L3:
  78               	.LBB150:
  79               	.LBB151:
  80               	.LSM8:
  81 004a 8093 F100 		sts 241,r24
  82               	.LBE151:
  83               	.LBE150:
  84               	.LBB152:
  85               	.LBB153:
  86               	.LSM9:
  87 004e 8091 E800 		lds r24,232
  88 0052 8E77      		andi r24,lo8(126)
  89 0054 8093 E800 		sts 232,r24
  90               	/* epilogue start */
  91               	.LBE153:
  92               	.LBE152:
  93               	.LSM10:
  94 0058 0F90      		pop __tmp_reg__
  95 005a CF91      		pop r28
  96 005c DF91      		pop r29
  97 005e 0895      		ret
  98               	.LFE114:
 100               		.section	.text.XPROGProtocol_WriteMemory,"ax",@progbits
 102               	XPROGProtocol_WriteMemory:
 103               	.LFB119:
 104               	.LSM11:
 105 0000 AF92      		push r10
 106 0002 BF92      		push r11
 107 0004 CF92      		push r12
 108 0006 DF92      		push r13
 109 0008 EF92      		push r14
 110 000a FF92      		push r15
 111 000c 0F93      		push r16
 112 000e 1F93      		push r17
 113 0010 DF93      		push r29
 114 0012 CF93      		push r28
 115 0014 CDB7      		in r28,__SP_L__
 116 0016 DEB7      		in r29,__SP_H__
 117 0018 C850      		subi r28,lo8(-(-264))
 118 001a D140      		sbci r29,hi8(-(-264))
 119 001c 0FB6      		in __tmp_reg__,__SREG__
 120 001e F894      		cli
 121 0020 DEBF      		out __SP_H__,r29
 122 0022 0FBE      		out __SREG__,__tmp_reg__
 123 0024 CDBF      		out __SP_L__,r28
 124               	/* prologue: function */
 125               	/* frame size = 264 */
 126               	.LSM12:
 127 0026 CE01      		movw r24,r28
 128 0028 0196      		adiw r24,1
 129 002a 68E0      		ldi r22,lo8(8)
 130 002c 70E0      		ldi r23,hi8(8)
 131 002e 40E0      		ldi r20,lo8(0)
 132 0030 50E0      		ldi r21,hi8(0)
 133 0032 0E94 0000 		call Endpoint_Read_Stream_LE
 134               	.LBB154:
 135               	.LBB155:
 136               	.LSM13:
 137 0036 8B81      		ldd r24,Y+3
 138 0038 9C81      		ldd r25,Y+4
 139 003a AD81      		ldd r26,Y+5
 140 003c BE81      		ldd r27,Y+6
 141               	.LVL0:
 142               	.LSM14:
 143 003e 282F      		mov r18,r24
 144               	.LVL1:
 145               	.LSM15:
 146 0040 8B2F      		mov r24,r27
 147               	.LVL2:
 148               	.LSM16:
 149 0042 B22F      		mov r27,r18
 150               	.LVL3:
 151               	.LSM17:
 152 0044 292F      		mov r18,r25
 153               	.LVL4:
 154               	.LSM18:
 155 0046 9A2F      		mov r25,r26
 156               	.LVL5:
 157               	.LSM19:
 158 0048 A22F      		mov r26,r18
 159               	.LVL6:
 160               	.LBE155:
 161               	.LBE154:
 162               	.LSM20:
 163 004a 8B83      		std Y+3,r24
 164 004c 9C83      		std Y+4,r25
 165 004e AD83      		std Y+5,r26
 166 0050 BE83      		std Y+6,r27
 167               	.LBB156:
 168               	.LBB157:
 169               	.LSM21:
 170 0052 6F81      		ldd r22,Y+7
 171 0054 7885      		ldd r23,Y+8
 172               	.LVL7:
 173               	.LSM22:
 174 0056 862F      		mov r24,r22
 175               	.LVL8:
 176               	.LSM23:
 177 0058 672F      		mov r22,r23
 178               	.LVL9:
 179               	.LSM24:
 180 005a 782F      		mov r23,r24
 181               	.LVL10:
 182               	.LBE157:
 183               	.LBE156:
 184               	.LSM25:
 185 005c 7887      		std Y+8,r23
 186 005e 6F83      		std Y+7,r22
 187               	.LSM26:
 188 0060 CE01      		movw r24,r28
 189               	.LVL11:
 190 0062 0996      		adiw r24,9
 191 0064 40E0      		ldi r20,lo8(0)
 192 0066 50E0      		ldi r21,hi8(0)
 193 0068 0E94 0000 		call Endpoint_Read_Stream_LE
 194               	.LVL12:
 195               	.LSM27:
 196 006c 8F81      		ldd r24,Y+7
 197 006e 9885      		ldd r25,Y+8
 198 0070 0996      		adiw r24,9
 199 0072 8F73      		andi r24,lo8(63)
 200 0074 9070      		andi r25,hi8(63)
 201 0076 892B      		or r24,r25
 202 0078 01F4      		brne .L6
 203               	.LBB158:
 204               	.LBB159:
 205               	.LSM28:
 206 007a 8091 E800 		lds r24,232
 207 007e 8B77      		andi r24,lo8(123)
 208 0080 8093 E800 		sts 232,r24
 209               	.LBE159:
 210               	.LBE158:
 211               	.LSM29:
 212 0084 0E94 0000 		call Endpoint_WaitUntilReady
 213               	.L6:
 214               	.LBB160:
 215               	.LBB161:
 216               	.LSM30:
 217 0088 8091 E800 		lds r24,232
 218 008c 8B77      		andi r24,lo8(123)
 219 008e 8093 E800 		sts 232,r24
 220               	.LBE161:
 221               	.LBE160:
 222               	.LBB162:
 223               	.LBB163:
 224               	.LSM31:
 225 0092 82E0      		ldi r24,lo8(2)
 226 0094 8093 E900 		sts 233,r24
 227               	.LBE163:
 228               	.LBE162:
 229               	.LBB164:
 230               	.LBB165:
 231               	.LSM32:
 232 0098 8091 EC00 		lds r24,236
 233 009c 8068      		ori r24,lo8(-128)
 234 009e 8093 EC00 		sts 236,r24
 235               	.LBE165:
 236               	.LBE164:
 237               	.LSM33:
 238 00a2 8091 0000 		lds r24,XPROG_SelectedProtocol
 239 00a6 8823      		tst r24
 240 00a8 01F4      		brne .L7
 241               	.LBB166:
 242               	.LSM34:
 243 00aa 8981      		ldd r24,Y+1
 244 00ac 8330      		cpi r24,lo8(3)
 245 00ae 01F0      		breq .L11
 246 00b0 8430      		cpi r24,lo8(4)
 247 00b2 00F4      		brsh .L15
 248 00b4 8130      		cpi r24,lo8(1)
 249 00b6 01F0      		breq .L9
 250 00b8 8230      		cpi r24,lo8(2)
 251 00ba 01F4      		brne .L8
 252 00bc 00C0      		rjmp .L25
 253               	.L15:
 254 00be 8530      		cpi r24,lo8(5)
 255 00c0 01F0      		breq .L13
 256 00c2 8530      		cpi r24,lo8(5)
 257 00c4 00F4      		brsh .+2
 258 00c6 00C0      		rjmp .L12
 259 00c8 8630      		cpi r24,lo8(6)
 260 00ca 01F4      		brne .L8
 261 00cc 00C0      		rjmp .L26
 262               	.L13:
 263 00ce 88E0      		ldi r24,lo8(8)
 264               	.LVL13:
 265 00d0 00C0      		rjmp .L16
 266               	.LVL14:
 267               	.L9:
 268 00d2 44E2      		ldi r20,lo8(36)
 269               	.LVL15:
 270 00d4 00C0      		rjmp .L22
 271               	.LVL16:
 272               	.L25:
 273 00d6 4CE2      		ldi r20,lo8(44)
 274               	.LVL17:
 275 00d8 00C0      		rjmp .L22
 276               	.LVL18:
 277               	.L11:
 278               	.LSM35:
 279 00da 45E3      		ldi r20,lo8(53)
 280               	.LVL19:
 281 00dc 83E3      		ldi r24,lo8(51)
 282               	.LVL20:
 283 00de 66E3      		ldi r22,lo8(54)
 284               	.LVL21:
 285 00e0 00C0      		rjmp .L17
 286               	.LVL22:
 287               	.L26:
 288               	.LSM36:
 289 00e2 4AE1      		ldi r20,lo8(26)
 290               	.LVL23:
 291 00e4 00C0      		rjmp .L22
 292               	.LVL24:
 293               	.L8:
 294               	.LSM37:
 295 00e6 4EE2      		ldi r20,lo8(46)
 296               	.LVL25:
 297               	.L22:
 298 00e8 83E2      		ldi r24,lo8(35)
 299               	.LVL26:
 300 00ea 66E2      		ldi r22,lo8(38)
 301               	.LVL27:
 302               	.L17:
 303               	.LSM38:
 304 00ec EB80      		ldd r14,Y+3
 305 00ee FC80      		ldd r15,Y+4
 306 00f0 0D81      		ldd r16,Y+5
 307 00f2 1E81      		ldd r17,Y+6
 308 00f4 AF80      		ldd r10,Y+7
 309 00f6 B884      		ldd r11,Y+8
 310 00f8 2A81      		ldd r18,Y+2
 311 00fa 99E0      		ldi r25,lo8(9)
 312 00fc C92E      		mov r12,r25
 313 00fe D12C      		mov r13,__zero_reg__
 314 0100 CC0E      		add r12,r28
 315 0102 DD1E      		adc r13,r29
 316 0104 0E94 0000 		call XMEGANVM_WritePageMemory
 317               	.LVL28:
 318 0108 00C0      		rjmp .L23
 319               	.L7:
 320               	.LBE166:
 321               	.LSM39:
 322 010a 4F81      		ldd r20,Y+7
 323 010c 5885      		ldd r21,Y+8
 324 010e 8B81      		ldd r24,Y+3
 325 0110 9C81      		ldd r25,Y+4
 326 0112 BE01      		movw r22,r28
 327 0114 675F      		subi r22,lo8(-(9))
 328 0116 7F4F      		sbci r23,hi8(-(9))
 329 0118 0E94 0000 		call TINYNVM_WriteMemory
 330               	.L23:
 331 011c 8823      		tst r24
 332 011e 01F0      		breq .L18
 333 0120 90E0      		ldi r25,lo8(0)
 334               	.LVL29:
 335 0122 00C0      		rjmp .L20
 336               	.LVL30:
 337               	.L18:
 338 0124 93E0      		ldi r25,lo8(3)
 339               	.LVL31:
 340               	.L20:
 341               	.LBB167:
 342               	.LBB168:
 343               	.LSM40:
 344 0126 80E5      		ldi r24,lo8(80)
 345 0128 8093 F100 		sts 241,r24
 346               	.LBE168:
 347               	.LBE167:
 348               	.LBB169:
 349               	.LBB170:
 350 012c 84E0      		ldi r24,lo8(4)
 351 012e 8093 F100 		sts 241,r24
 352               	.LBE170:
 353               	.LBE169:
 354               	.LBB171:
 355               	.LBB172:
 356 0132 9093 F100 		sts 241,r25
 357               	.LBE172:
 358               	.LBE171:
 359               	.LBB173:
 360               	.LBB174:
 361               	.LSM41:
 362 0136 8091 E800 		lds r24,232
 363 013a 8E77      		andi r24,lo8(126)
 364 013c 8093 E800 		sts 232,r24
 365               	/* epilogue start */
 366               	.LBE174:
 367               	.LBE173:
 368               	.LSM42:
 369 0140 C85F      		subi r28,lo8(-(264))
 370 0142 DE4F      		sbci r29,hi8(-(264))
 371 0144 0FB6      		in __tmp_reg__,__SREG__
 372 0146 F894      		cli
 373 0148 DEBF      		out __SP_H__,r29
 374 014a 0FBE      		out __SREG__,__tmp_reg__
 375 014c CDBF      		out __SP_L__,r28
 376 014e CF91      		pop r28
 377 0150 DF91      		pop r29
 378 0152 1F91      		pop r17
 379 0154 0F91      		pop r16
 380 0156 FF90      		pop r15
 381 0158 EF90      		pop r14
 382 015a DF90      		pop r13
 383 015c CF90      		pop r12
 384 015e BF90      		pop r11
 385 0160 AF90      		pop r10
 386 0162 0895      		ret
 387               	.LVL32:
 388               	.L12:
 389               	.LBB176:
 390               	.LBB175:
 391 0164 8CE4      		ldi r24,lo8(76)
 392               	.LVL33:
 393               	.L16:
 394               	.LBE175:
 395               	.LBE176:
 396               	.LBB177:
 397               	.LSM43:
 398 0166 4B81      		ldd r20,Y+3
 399 0168 5C81      		ldd r21,Y+4
 400 016a 6D81      		ldd r22,Y+5
 401 016c 7E81      		ldd r23,Y+6
 402 016e 2985      		ldd r18,Y+9
 403 0170 0E94 0000 		call XMEGANVM_WriteByteMemory
 404               	.LVL34:
 405 0174 00C0      		rjmp .L23
 406               	.LBE177:
 407               	.LFE119:
 409               		.section	.text.XPROGProtocol_ReadMemory,"ax",@progbits
 411               	XPROGProtocol_ReadMemory:
 412               	.LFB120:
 413               	.LSM44:
 414 0000 DF93      		push r29
 415 0002 CF93      		push r28
 416 0004 CDB7      		in r28,__SP_L__
 417 0006 DEB7      		in r29,__SP_H__
 418 0008 C750      		subi r28,lo8(-(-263))
 419 000a D140      		sbci r29,hi8(-(-263))
 420 000c 0FB6      		in __tmp_reg__,__SREG__
 421 000e F894      		cli
 422 0010 DEBF      		out __SP_H__,r29
 423 0012 0FBE      		out __SREG__,__tmp_reg__
 424 0014 CDBF      		out __SP_L__,r28
 425               	/* prologue: function */
 426               	/* frame size = 263 */
 427               	.LSM45:
 428 0016 CE01      		movw r24,r28
 429 0018 0196      		adiw r24,1
 430 001a 67E0      		ldi r22,lo8(7)
 431 001c 70E0      		ldi r23,hi8(7)
 432 001e 40E0      		ldi r20,lo8(0)
 433 0020 50E0      		ldi r21,hi8(0)
 434 0022 0E94 0000 		call Endpoint_Read_Stream_LE
 435               	.LBB178:
 436               	.LBB179:
 437               	.LSM46:
 438 0026 2A81      		ldd r18,Y+2
 439 0028 3B81      		ldd r19,Y+3
 440 002a 4C81      		ldd r20,Y+4
 441 002c 5D81      		ldd r21,Y+5
 442               	.LVL35:
 443               	.LSM47:
 444 002e 822F      		mov r24,r18
 445               	.LVL36:
 446               	.LSM48:
 447 0030 252F      		mov r18,r21
 448               	.LVL37:
 449               	.LSM49:
 450 0032 582F      		mov r21,r24
 451               	.LVL38:
 452               	.LSM50:
 453 0034 832F      		mov r24,r19
 454               	.LVL39:
 455               	.LSM51:
 456 0036 342F      		mov r19,r20
 457               	.LVL40:
 458               	.LSM52:
 459 0038 482F      		mov r20,r24
 460               	.LVL41:
 461               	.LBE179:
 462               	.LBE178:
 463               	.LSM53:
 464 003a 2A83      		std Y+2,r18
 465 003c 3B83      		std Y+3,r19
 466 003e 4C83      		std Y+4,r20
 467 0040 5D83      		std Y+5,r21
 468               	.LBB180:
 469               	.LBB181:
 470               	.LSM54:
 471 0042 EE81      		ldd r30,Y+6
 472 0044 FF81      		ldd r31,Y+7
 473               	.LVL42:
 474               	.LSM55:
 475 0046 8E2F      		mov r24,r30
 476               	.LVL43:
 477               	.LSM56:
 478 0048 EF2F      		mov r30,r31
 479               	.LVL44:
 480               	.LSM57:
 481 004a F82F      		mov r31,r24
 482               	.LVL45:
 483               	.LBE181:
 484               	.LBE180:
 485               	.LSM58:
 486 004c FF83      		std Y+7,r31
 487 004e EE83      		std Y+6,r30
 488               	.LBB182:
 489               	.LBB183:
 490               	.LSM59:
 491 0050 8091 E800 		lds r24,232
 492               	.LVL46:
 493 0054 8B77      		andi r24,lo8(123)
 494 0056 8093 E800 		sts 232,r24
 495               	.LBE183:
 496               	.LBE182:
 497               	.LBB184:
 498               	.LBB185:
 499               	.LSM60:
 500 005a 82E0      		ldi r24,lo8(2)
 501 005c 8093 E900 		sts 233,r24
 502               	.LBE185:
 503               	.LBE184:
 504               	.LBB186:
 505               	.LBB187:
 506               	.LSM61:
 507 0060 8091 EC00 		lds r24,236
 508 0064 8068      		ori r24,lo8(-128)
 509 0066 8093 EC00 		sts 236,r24
 510               	.LBE187:
 511               	.LBE186:
 512               	.LSM62:
 513 006a 8091 0000 		lds r24,XPROG_SelectedProtocol
 514 006e DE01      		movw r26,r28
 515 0070 1896      		adiw r26,8
 516 0072 8823      		tst r24
 517 0074 01F4      		brne .L28
 518               	.LSM63:
 519 0076 CA01      		movw r24,r20
 520 0078 B901      		movw r22,r18
 521 007a AD01      		movw r20,r26
 522               	.LVL47:
 523 007c 9F01      		movw r18,r30
 524               	.LVL48:
 525 007e 0E94 0000 		call XMEGANVM_ReadMemory
 526               	.LVL49:
 527 0082 00C0      		rjmp .L34
 528               	.LVL50:
 529               	.L28:
 530               	.LSM64:
 531 0084 C901      		movw r24,r18
 532 0086 BD01      		movw r22,r26
 533 0088 AF01      		movw r20,r30
 534               	.LVL51:
 535 008a 0E94 0000 		call TINYNVM_ReadMemory
 536               	.LVL52:
 537               	.L34:
 538 008e 8823      		tst r24
 539 0090 01F4      		brne .L30
 540 0092 93E0      		ldi r25,lo8(3)
 541               	.LVL53:
 542 0094 00C0      		rjmp .L31
 543               	.LVL54:
 544               	.L30:
 545 0096 90E0      		ldi r25,lo8(0)
 546               	.LVL55:
 547               	.L31:
 548               	.LBB188:
 549               	.LBB189:
 550               	.LSM65:
 551 0098 80E5      		ldi r24,lo8(80)
 552 009a 8093 F100 		sts 241,r24
 553               	.LBE189:
 554               	.LBE188:
 555               	.LBB190:
 556               	.LBB191:
 557 009e 85E0      		ldi r24,lo8(5)
 558 00a0 8093 F100 		sts 241,r24
 559               	.LBE191:
 560               	.LBE190:
 561               	.LBB192:
 562               	.LBB193:
 563 00a4 9093 F100 		sts 241,r25
 564               	.LBE193:
 565               	.LBE192:
 566               	.LSM66:
 567 00a8 9923      		tst r25
 568 00aa 01F4      		brne .L32
 569               	.LSM67:
 570 00ac 6E81      		ldd r22,Y+6
 571 00ae 7F81      		ldd r23,Y+7
 572 00b0 CE01      		movw r24,r28
 573 00b2 0896      		adiw r24,8
 574 00b4 40E0      		ldi r20,lo8(0)
 575 00b6 50E0      		ldi r21,hi8(0)
 576 00b8 0E94 0000 		call Endpoint_Write_Stream_LE
 577               	.LVL56:
 578               	.L32:
 579               	.LBB194:
 580               	.LBB195:
 581               	.LSM68:
 582 00bc 8091 E800 		lds r24,232
 583 00c0 8E77      		andi r24,lo8(126)
 584 00c2 8093 E800 		sts 232,r24
 585               	/* epilogue start */
 586               	.LBE195:
 587               	.LBE194:
 588               	.LSM69:
 589 00c6 C95F      		subi r28,lo8(-(263))
 590 00c8 DE4F      		sbci r29,hi8(-(263))
 591 00ca 0FB6      		in __tmp_reg__,__SREG__
 592 00cc F894      		cli
 593 00ce DEBF      		out __SP_H__,r29
 594 00d0 0FBE      		out __SREG__,__tmp_reg__
 595 00d2 CDBF      		out __SP_L__,r28
 596 00d4 CF91      		pop r28
 597 00d6 DF91      		pop r29
 598 00d8 0895      		ret
 599               	.LFE120:
 601               		.section	.text.XPROGProtocol_Command,"ax",@progbits
 602               	.global	XPROGProtocol_Command
 604               	XPROGProtocol_Command:
 605               	.LFB115:
 606               	.LSM70:
 607 0000 DF93      		push r29
 608 0002 CF93      		push r28
 609 0004 CDB7      		in r28,__SP_L__
 610 0006 DEB7      		in r29,__SP_H__
 611 0008 2997      		sbiw r28,9
 612 000a 0FB6      		in __tmp_reg__,__SREG__
 613 000c F894      		cli
 614 000e DEBF      		out __SP_H__,r29
 615 0010 0FBE      		out __SREG__,__tmp_reg__
 616 0012 CDBF      		out __SP_L__,r28
 617               	/* prologue: function */
 618               	/* frame size = 9 */
 619               	.LBB295:
 620               	.LBB296:
 621               	.LSM71:
 622 0014 9091 F100 		lds r25,241
 623               	.LVL57:
 624               	.LBE296:
 625               	.LBE295:
 626               	.LSM72:
 627 0018 9430      		cpi r25,lo8(4)
 628 001a 01F4      		brne .+2
 629 001c 00C0      		rjmp .L40
 630 001e 9530      		cpi r25,lo8(5)
 631 0020 00F4      		brsh .L44
 632 0022 9230      		cpi r25,lo8(2)
 633 0024 01F0      		breq .L38
 634 0026 9330      		cpi r25,lo8(3)
 635 0028 00F0      		brlo .+2
 636 002a 00C0      		rjmp .L39
 637 002c 9130      		cpi r25,lo8(1)
 638 002e 01F0      		breq .+2
 639 0030 00C0      		rjmp .L82
 640 0032 00C0      		rjmp .L91
 641               	.L44:
 642 0034 9630      		cpi r25,lo8(6)
 643 0036 01F4      		brne .+2
 644 0038 00C0      		rjmp .L42
 645 003a 9630      		cpi r25,lo8(6)
 646 003c 00F4      		brsh .+2
 647 003e 00C0      		rjmp .L41
 648 0040 9730      		cpi r25,lo8(7)
 649 0042 01F0      		breq .+2
 650 0044 00C0      		rjmp .L82
 651 0046 00C0      		rjmp .L92
 652               	.L91:
 653               	.LBB297:
 654               	.LBB298:
 655               	.LBB299:
 656               	.LBB300:
 657               	.LSM73:
 658 0048 8091 E800 		lds r24,232
 659 004c 8B77      		andi r24,lo8(123)
 660 004e 8093 E800 		sts 232,r24
 661               	.LBE300:
 662               	.LBE299:
 663               	.LBB301:
 664               	.LBB302:
 665               	.LSM74:
 666 0052 82E0      		ldi r24,lo8(2)
 667 0054 8093 E900 		sts 233,r24
 668               	.LBE302:
 669               	.LBE301:
 670               	.LBB303:
 671               	.LBB304:
 672               	.LSM75:
 673 0058 8091 EC00 		lds r24,236
 674 005c 8068      		ori r24,lo8(-128)
 675 005e 8093 EC00 		sts 236,r24
 676               	.LBE304:
 677               	.LBE303:
 678               	.LSM76:
 679 0062 8091 0000 		lds r24,XPROG_SelectedProtocol
 680 0066 8823      		tst r24
 681 0068 01F4      		brne .L45
 682               	.LBE298:
 683               	.LSM77:
 684 006a 0E94 0000 		call XMEGANVM_EnablePDI
 685               	.LVL58:
 686 006e 00C0      		rjmp .L84
 687               	.LVL59:
 688               	.L45:
 689               	.LBB309:
 690               	.LSM78:
 691 0070 8230      		cpi r24,lo8(2)
 692 0072 01F0      		breq .L47
 693 0074 90E0      		ldi r25,lo8(0)
 694               	.LVL60:
 695 0076 00C0      		rjmp .L46
 696               	.LVL61:
 697               	.L47:
 698               	.LBE309:
 699               	.LSM79:
 700 0078 0E94 0000 		call TINYNVM_EnableTPI
 701               	.LVL62:
 702               	.L84:
 703 007c 982F      		mov r25,r24
 704               	.LVL63:
 705               	.L46:
 706               	.LBB310:
 707               	.LBB305:
 708               	.LBB306:
 709               	.LSM80:
 710 007e 80E5      		ldi r24,lo8(80)
 711 0080 8093 F100 		sts 241,r24
 712               	.LBE306:
 713               	.LBE305:
 714               	.LBB307:
 715               	.LBB308:
 716 0084 81E0      		ldi r24,lo8(1)
 717 0086 8093 F100 		sts 241,r24
 718 008a 8927      		eor r24,r25
 719 008c 00C0      		rjmp .L89
 720               	.LVL64:
 721               	.L38:
 722               	.LBE308:
 723               	.LBE307:
 724               	.LBE310:
 725               	.LBE297:
 726               	.LBB311:
 727               	.LBB312:
 728               	.LBB313:
 729               	.LBB314:
 730               	.LSM81:
 731 008e 8091 E800 		lds r24,232
 732 0092 8B77      		andi r24,lo8(123)
 733 0094 8093 E800 		sts 232,r24
 734               	.LBE314:
 735               	.LBE313:
 736               	.LBB315:
 737               	.LBB316:
 738               	.LSM82:
 739 0098 9093 E900 		sts 233,r25
 740               	.LBE316:
 741               	.LBE315:
 742               	.LBB317:
 743               	.LBB318:
 744               	.LSM83:
 745 009c 8091 EC00 		lds r24,236
 746 00a0 8068      		ori r24,lo8(-128)
 747 00a2 8093 EC00 		sts 236,r24
 748               	.LBE318:
 749               	.LBE317:
 750               	.LSM84:
 751 00a6 8091 0000 		lds r24,XPROG_SelectedProtocol
 752 00aa 8823      		tst r24
 753 00ac 01F4      		brne .L48
 754               	.LSM85:
 755 00ae 0E94 0000 		call XMEGANVM_DisablePDI
 756               	.LVL65:
 757 00b2 00C0      		rjmp .L49
 758               	.LVL66:
 759               	.L48:
 760               	.LSM86:
 761 00b4 0E94 0000 		call TINYNVM_DisableTPI
 762               	.LVL67:
 763               	.L49:
 764               	.LBB319:
 765               	.LBB320:
 766               	.LSM87:
 767 00b8 80E5      		ldi r24,lo8(80)
 768 00ba 8093 F100 		sts 241,r24
 769               	.LBE320:
 770               	.LBE319:
 771               	.LBB321:
 772               	.LBB322:
 773 00be 82E0      		ldi r24,lo8(2)
 774 00c0 8093 F100 		sts 241,r24
 775               	.LBE322:
 776               	.LBE321:
 777               	.LBB323:
 778               	.LBB324:
 779 00c4 1092 F100 		sts 241,__zero_reg__
 780 00c8 00C0      		rjmp .L88
 781               	.LVL68:
 782               	.L39:
 783               	.LBE324:
 784               	.LBE323:
 785               	.LBE312:
 786               	.LBE311:
 787               	.LBB325:
 788               	.LBB326:
 789               	.LSM88:
 790 00ca CE01      		movw r24,r28
 791 00cc 0596      		adiw r24,5
 792 00ce 65E0      		ldi r22,lo8(5)
 793 00d0 70E0      		ldi r23,hi8(5)
 794 00d2 40E0      		ldi r20,lo8(0)
 795 00d4 50E0      		ldi r21,hi8(0)
 796 00d6 0E94 0000 		call Endpoint_Read_Stream_LE
 797               	.LVL69:
 798               	.LBB327:
 799               	.LBB328:
 800               	.LSM89:
 801 00da 4E81      		ldd r20,Y+6
 802 00dc 5F81      		ldd r21,Y+7
 803 00de 6885      		ldd r22,Y+8
 804 00e0 7985      		ldd r23,Y+9
 805               	.LVL70:
 806               	.LSM90:
 807 00e2 842F      		mov r24,r20
 808               	.LVL71:
 809               	.LSM91:
 810 00e4 472F      		mov r20,r23
 811               	.LVL72:
 812               	.LSM92:
 813 00e6 782F      		mov r23,r24
 814               	.LVL73:
 815               	.LSM93:
 816 00e8 852F      		mov r24,r21
 817               	.LVL74:
 818               	.LSM94:
 819 00ea 562F      		mov r21,r22
 820               	.LVL75:
 821               	.LSM95:
 822 00ec 682F      		mov r22,r24
 823               	.LVL76:
 824               	.LBE328:
 825               	.LBE327:
 826               	.LSM96:
 827 00ee 4E83      		std Y+6,r20
 828 00f0 5F83      		std Y+7,r21
 829 00f2 6887      		std Y+8,r22
 830 00f4 7987      		std Y+9,r23
 831               	.LBB329:
 832               	.LBB330:
 833               	.LSM97:
 834 00f6 8091 E800 		lds r24,232
 835               	.LVL77:
 836 00fa 8B77      		andi r24,lo8(123)
 837 00fc 8093 E800 		sts 232,r24
 838               	.LBE330:
 839               	.LBE329:
 840               	.LBB331:
 841               	.LBB332:
 842               	.LSM98:
 843 0100 82E0      		ldi r24,lo8(2)
 844 0102 8093 E900 		sts 233,r24
 845               	.LBE332:
 846               	.LBE331:
 847               	.LBB333:
 848               	.LBB334:
 849               	.LSM99:
 850 0106 8091 EC00 		lds r24,236
 851 010a 8068      		ori r24,lo8(-128)
 852 010c 8093 EC00 		sts 236,r24
 853               	.LBE334:
 854               	.LBE333:
 855               	.LSM100:
 856 0110 8091 0000 		lds r24,XPROG_SelectedProtocol
 857 0114 9D81      		ldd r25,Y+5
 858 0116 8823      		tst r24
 859 0118 01F4      		brne .L50
 860               	.LSM101:
 861 011a 9430      		cpi r25,lo8(4)
 862 011c 01F0      		breq .L55
 863 011e 9530      		cpi r25,lo8(5)
 864 0120 00F4      		brsh .L60
 865 0122 9230      		cpi r25,lo8(2)
 866 0124 01F0      		breq .L53
 867 0126 9330      		cpi r25,lo8(3)
 868 0128 00F4      		brsh .L54
 869 012a 9130      		cpi r25,lo8(1)
 870 012c 01F4      		brne .L51
 871 012e 00C0      		rjmp .L93
 872               	.L60:
 873 0130 9630      		cpi r25,lo8(6)
 874 0132 01F0      		breq .L57
 875 0134 9630      		cpi r25,lo8(6)
 876 0136 00F0      		brlo .L56
 877 0138 9730      		cpi r25,lo8(7)
 878 013a 01F0      		breq .L58
 879 013c 9830      		cpi r25,lo8(8)
 880 013e 01F4      		brne .L51
 881 0140 00C0      		rjmp .L94
 882               	.L53:
 883 0142 80E2      		ldi r24,lo8(32)
 884               	.LVL78:
 885 0144 00C0      		rjmp .L61
 886               	.LVL79:
 887               	.L93:
 888 0146 80E4      		ldi r24,lo8(64)
 889               	.LVL80:
 890 0148 00C0      		rjmp .L61
 891               	.LVL81:
 892               	.L54:
 893 014a 88E6      		ldi r24,lo8(104)
 894               	.LVL82:
 895 014c 00C0      		rjmp .L61
 896               	.LVL83:
 897               	.L55:
 898 014e 80E3      		ldi r24,lo8(48)
 899               	.LVL84:
 900 0150 00C0      		rjmp .L61
 901               	.LVL85:
 902               	.L56:
 903 0152 82E2      		ldi r24,lo8(34)
 904               	.LVL86:
 905 0154 00C0      		rjmp .L61
 906               	.LVL87:
 907               	.L57:
 908 0156 8AE2      		ldi r24,lo8(42)
 909               	.LVL88:
 910 0158 00C0      		rjmp .L61
 911               	.LVL89:
 912               	.L58:
 913 015a 82E3      		ldi r24,lo8(50)
 914               	.LVL90:
 915 015c 00C0      		rjmp .L61
 916               	.LVL91:
 917               	.L94:
 918 015e 88E1      		ldi r24,lo8(24)
 919               	.LVL92:
 920 0160 00C0      		rjmp .L61
 921               	.LVL93:
 922               	.L51:
 923 0162 80E0      		ldi r24,lo8(0)
 924               	.LVL94:
 925               	.L61:
 926               	.LBE326:
 927               	.LSM102:
 928 0164 0E94 0000 		call XMEGANVM_EraseMemory
 929               	.LVL95:
 930 0168 00C0      		rjmp .L86
 931               	.LVL96:
 932               	.L50:
 933               	.LBB339:
 934               	.LSM103:
 935 016a 9130      		cpi r25,lo8(1)
 936 016c 01F0      		breq .L64
 937 016e 84E1      		ldi r24,lo8(20)
 938               	.LVL97:
 939 0170 00C0      		rjmp .L65
 940               	.LVL98:
 941               	.L64:
 942 0172 80E1      		ldi r24,lo8(16)
 943               	.LVL99:
 944               	.L65:
 945               	.LBE339:
 946               	.LSM104:
 947 0174 BA01      		movw r22,r20
 948               	.LVL100:
 949 0176 0E94 0000 		call TINYNVM_EraseMemory
 950               	.LVL101:
 951               	.L86:
 952               	.LBB340:
 953 017a 8823      		tst r24
 954 017c 01F0      		breq .L62
 955 017e 90E0      		ldi r25,lo8(0)
 956               	.LVL102:
 957 0180 00C0      		rjmp .L66
 958               	.LVL103:
 959               	.L62:
 960 0182 93E0      		ldi r25,lo8(3)
 961               	.LVL104:
 962               	.L66:
 963               	.LBB335:
 964               	.LBB336:
 965               	.LSM105:
 966 0184 80E5      		ldi r24,lo8(80)
 967 0186 8093 F100 		sts 241,r24
 968               	.LBE336:
 969               	.LBE335:
 970               	.LBB337:
 971               	.LBB338:
 972 018a 83E0      		ldi r24,lo8(3)
 973 018c 00C0      		rjmp .L90
 974               	.LVL105:
 975               	.L40:
 976               	.LBE338:
 977               	.LBE337:
 978               	.LBE340:
 979               	.LBE325:
 980               	.LSM106:
 981 018e 0E94 0000 		call XPROGProtocol_WriteMemory
 982               	.LVL106:
 983 0192 00C0      		rjmp .L82
 984               	.LVL107:
 985               	.L41:
 986               	.LSM107:
 987 0194 0E94 0000 		call XPROGProtocol_ReadMemory
 988               	.LVL108:
 989 0198 00C0      		rjmp .L82
 990               	.LVL109:
 991               	.L42:
 992               	.LBB341:
 993               	.LBB342:
 994               	.LSM108:
 995 019a CE01      		movw r24,r28
 996 019c 0596      		adiw r24,5
 997 019e 61E0      		ldi r22,lo8(1)
 998 01a0 70E0      		ldi r23,hi8(1)
 999 01a2 40E0      		ldi r20,lo8(0)
 1000 01a4 50E0      		ldi r21,hi8(0)
 1001 01a6 0E94 0000 		call Endpoint_Read_Stream_LE
 1002               	.LVL110:
 1003               	.LBB348:
 1004               	.LBB349:
 1005               	.LSM109:
 1006 01aa 8091 E800 		lds r24,232
 1007 01ae 8B77      		andi r24,lo8(123)
 1008 01b0 8093 E800 		sts 232,r24
 1009               	.LBE349:
 1010               	.LBE348:
 1011               	.LBB346:
 1012               	.LBB347:
 1013               	.LSM110:
 1014 01b4 82E0      		ldi r24,lo8(2)
 1015 01b6 8093 E900 		sts 233,r24
 1016               	.LBE347:
 1017               	.LBE346:
 1018               	.LBB344:
 1019               	.LBB345:
 1020               	.LSM111:
 1021 01ba 8091 EC00 		lds r24,236
 1022 01be 8068      		ori r24,lo8(-128)
 1023 01c0 8093 EC00 		sts 236,r24
 1024               	.LBE345:
 1025               	.LBE344:
 1026               	.LSM112:
 1027 01c4 8091 0000 		lds r24,XPROG_SelectedProtocol
 1028 01c8 8823      		tst r24
 1029 01ca 01F0      		breq .L67
 1030 01cc 91E0      		ldi r25,lo8(1)
 1031               	.LVL111:
 1032 01ce 00C0      		rjmp .L68
 1033               	.LVL112:
 1034               	.L67:
 1035               	.LBB343:
 1036               	.LSM113:
 1037 01d0 8D81      		ldd r24,Y+5
 1038 01d2 8130      		cpi r24,lo8(1)
 1039 01d4 01F0      		breq .L70
 1040 01d6 8230      		cpi r24,lo8(2)
 1041 01d8 01F4      		brne .L83
 1042 01da 89E3      		ldi r24,lo8(57)
 1043               	.LVL113:
 1044 01dc 00C0      		rjmp .L72
 1045               	.LVL114:
 1046               	.L70:
 1047 01de 88E3      		ldi r24,lo8(56)
 1048               	.LVL115:
 1049 01e0 00C0      		rjmp .L72
 1050               	.LVL116:
 1051               	.L83:
 1052 01e2 88E7      		ldi r24,lo8(120)
 1053               	.LVL117:
 1054               	.L72:
 1055               	.LBE343:
 1056               	.LBE342:
 1057               	.LSM114:
 1058 01e4 BE01      		movw r22,r28
 1059 01e6 6F5F      		subi r22,lo8(-(1))
 1060 01e8 7F4F      		sbci r23,hi8(-(1))
 1061 01ea 0E94 0000 		call XMEGANVM_GetMemoryCRC
 1062               	.LVL118:
 1063               	.LBB361:
 1064               	.LBB350:
 1065 01ee 8823      		tst r24
 1066 01f0 01F4      		brne .L73
 1067 01f2 93E0      		ldi r25,lo8(3)
 1068               	.LVL119:
 1069 01f4 00C0      		rjmp .L68
 1070               	.LVL120:
 1071               	.L73:
 1072 01f6 90E0      		ldi r25,lo8(0)
 1073               	.LVL121:
 1074               	.L68:
 1075               	.LBE350:
 1076               	.LBB351:
 1077               	.LBB352:
 1078               	.LSM115:
 1079 01f8 80E5      		ldi r24,lo8(80)
 1080 01fa 8093 F100 		sts 241,r24
 1081               	.LBE352:
 1082               	.LBE351:
 1083               	.LBB353:
 1084               	.LBB354:
 1085 01fe 86E0      		ldi r24,lo8(6)
 1086 0200 8093 F100 		sts 241,r24
 1087               	.LBE354:
 1088               	.LBE353:
 1089               	.LBB355:
 1090               	.LBB356:
 1091 0204 9093 F100 		sts 241,r25
 1092               	.LBE356:
 1093               	.LBE355:
 1094               	.LSM116:
 1095 0208 9923      		tst r25
 1096 020a 01F0      		breq .+2
 1097 020c 00C0      		rjmp .L88
 1098               	.LSM117:
 1099 020e 8981      		ldd r24,Y+1
 1100 0210 9A81      		ldd r25,Y+2
 1101 0212 AB81      		ldd r26,Y+3
 1102 0214 BC81      		ldd r27,Y+4
 1103               	.LVL122:
 1104 0216 9D01      		movw r18,r26
 1105 0218 4427      		clr r20
 1106 021a 5527      		clr r21
 1107               	.LBB357:
 1108               	.LBB358:
 1109               	.LSM118:
 1110 021c 2093 F100 		sts 241,r18
 1111               	.LBE358:
 1112               	.LBE357:
 1113               	.LBB359:
 1114               	.LBB360:
 1115               	.LSM119:
 1116 0220 8093 F100 		sts 241,r24
 1117               	.LSM120:
 1118 0224 892F      		mov r24,r25
 1119 0226 9927      		clr r25
 1120               	.LVL123:
 1121               	.L89:
 1122 0228 8093 F100 		sts 241,r24
 1123 022c 00C0      		rjmp .L88
 1124               	.LVL124:
 1125               	.L92:
 1126               	.LBE360:
 1127               	.LBE359:
 1128               	.LBE361:
 1129               	.LBE341:
 1130               	.LBB362:
 1131               	.LBB363:
 1132               	.LBB364:
 1133               	.LBB365:
 1134               	.LSM121:
 1135 022e 8091 F100 		lds r24,241
 1136               	.LVL125:
 1137               	.LBE365:
 1138               	.LBE364:
 1139               	.LSM122:
 1140 0232 8230      		cpi r24,lo8(2)
 1141 0234 01F0      		breq .L77
 1142 0236 8330      		cpi r24,lo8(3)
 1143 0238 00F4      		brsh .L80
 1144 023a 8130      		cpi r24,lo8(1)
 1145 023c 01F4      		brne .L75
 1146 023e 00C0      		rjmp .L95
 1147               	.L80:
 1148 0240 8330      		cpi r24,lo8(3)
 1149 0242 01F0      		breq .L78
 1150 0244 8430      		cpi r24,lo8(4)
 1151 0246 01F0      		breq .L79
 1152               	.L75:
 1153 0248 91E0      		ldi r25,lo8(1)
 1154               	.LVL126:
 1155 024a 00C0      		rjmp .L81
 1156               	.LVL127:
 1157               	.L95:
 1158               	.LBB366:
 1159               	.LBB367:
 1160               	.LSM123:
 1161 024c 2091 F100 		lds r18,241
 1162 0250 B22F      		mov r27,r18
 1163               	.LVL128:
 1164               	.LSM124:
 1165 0252 2091 F100 		lds r18,241
 1166 0256 A22F      		mov r26,r18
 1167               	.LVL129:
 1168               	.LSM125:
 1169 0258 2091 F100 		lds r18,241
 1170 025c 922F      		mov r25,r18
 1171               	.LVL130:
 1172               	.LSM126:
 1173 025e 2091 F100 		lds r18,241
 1174 0262 822F      		mov r24,r18
 1175               	.LVL131:
 1176               	.LBE367:
 1177               	.LBE366:
 1178               	.LSM127:
 1179 0264 8093 0000 		sts XPROG_Param_NVMBase,r24
 1180 0268 9093 0000 		sts (XPROG_Param_NVMBase)+1,r25
 1181 026c A093 0000 		sts (XPROG_Param_NVMBase)+2,r26
 1182 0270 B093 0000 		sts (XPROG_Param_NVMBase)+3,r27
 1183 0274 00C0      		rjmp .L87
 1184               	.LVL132:
 1185               	.L77:
 1186               	.LBB368:
 1187               	.LBB369:
 1188               	.LSM128:
 1189 0276 8091 F100 		lds r24,241
 1190               	.LVL133:
 1191 027a 382F      		mov r19,r24
 1192               	.LVL134:
 1193               	.LSM129:
 1194 027c 8091 F100 		lds r24,241
 1195 0280 282F      		mov r18,r24
 1196               	.LVL135:
 1197               	.LBE369:
 1198               	.LBE368:
 1199               	.LSM130:
 1200 0282 3093 0000 		sts (XPROG_Param_EEPageSize)+1,r19
 1201 0286 2093 0000 		sts XPROG_Param_EEPageSize,r18
 1202 028a 00C0      		rjmp .L87
 1203               	.LVL136:
 1204               	.L78:
 1205               	.LBB370:
 1206               	.LBB371:
 1207               	.LSM131:
 1208 028c 8091 F100 		lds r24,241
 1209               	.LVL137:
 1210               	.LBE371:
 1211               	.LBE370:
 1212               	.LSM132:
 1213 0290 8093 0000 		sts XPROG_Param_NVMCMDRegAddr,r24
 1214 0294 00C0      		rjmp .L87
 1215               	.LVL138:
 1216               	.L79:
 1217               	.LBB372:
 1218               	.LBB373:
 1219               	.LSM133:
 1220 0296 8091 F100 		lds r24,241
 1221               	.LVL139:
 1222               	.LBE373:
 1223               	.LBE372:
 1224               	.LSM134:
 1225 029a 8093 0000 		sts XPROG_Param_NVMCSRRegAddr,r24
 1226               	.LVL140:
 1227               	.L87:
 1228 029e 90E0      		ldi r25,lo8(0)
 1229               	.LVL141:
 1230               	.L81:
 1231               	.LBB374:
 1232               	.LBB375:
 1233               	.LSM135:
 1234 02a0 8091 E800 		lds r24,232
 1235               	.LVL142:
 1236 02a4 8B77      		andi r24,lo8(123)
 1237 02a6 8093 E800 		sts 232,r24
 1238               	.LBE375:
 1239               	.LBE374:
 1240               	.LBB376:
 1241               	.LBB377:
 1242               	.LSM136:
 1243 02aa 82E0      		ldi r24,lo8(2)
 1244 02ac 8093 E900 		sts 233,r24
 1245               	.LBE377:
 1246               	.LBE376:
 1247               	.LBB378:
 1248               	.LBB379:
 1249               	.LSM137:
 1250 02b0 8091 EC00 		lds r24,236
 1251 02b4 8068      		ori r24,lo8(-128)
 1252 02b6 8093 EC00 		sts 236,r24
 1253               	.LBE379:
 1254               	.LBE378:
 1255               	.LBB380:
 1256               	.LBB381:
 1257               	.LSM138:
 1258 02ba 80E5      		ldi r24,lo8(80)
 1259 02bc 8093 F100 		sts 241,r24
 1260               	.LBE381:
 1261               	.LBE380:
 1262               	.LBB382:
 1263               	.LBB383:
 1264 02c0 87E0      		ldi r24,lo8(7)
 1265               	.LVL143:
 1266               	.L90:
 1267 02c2 8093 F100 		sts 241,r24
 1268               	.LBE383:
 1269               	.LBE382:
 1270               	.LBB384:
 1271               	.LBB385:
 1272 02c6 9093 F100 		sts 241,r25
 1273               	.LVL144:
 1274               	.L88:
 1275               	.LBE385:
 1276               	.LBE384:
 1277               	.LBB386:
 1278               	.LBB387:
 1279               	.LSM139:
 1280 02ca 8091 E800 		lds r24,232
 1281 02ce 8E77      		andi r24,lo8(126)
 1282 02d0 8093 E800 		sts 232,r24
 1283               	.LVL145:
 1284               	.L82:
 1285               	/* epilogue start */
 1286               	.LBE387:
 1287               	.LBE386:
 1288               	.LBE363:
 1289               	.LBE362:
 1290               	.LSM140:
 1291 02d4 2996      		adiw r28,9
 1292 02d6 0FB6      		in __tmp_reg__,__SREG__
 1293 02d8 F894      		cli
 1294 02da DEBF      		out __SP_H__,r29
 1295 02dc 0FBE      		out __SREG__,__tmp_reg__
 1296 02de CDBF      		out __SP_L__,r28
 1297 02e0 CF91      		pop r28
 1298 02e2 DF91      		pop r29
 1299 02e4 0895      		ret
 1300               	.LFE115:
 1302               	.global	XPROG_Param_NVMBase
 1303               		.data
 1306               	XPROG_Param_NVMBase:
 1307 0000 C0        		.byte	-64
 1308 0001 01        		.byte	1
 1309 0002 00        		.byte	0
 1310 0003 01        		.byte	1
 1311               	.global	XPROG_Param_EEPageSize
 1314               	XPROG_Param_EEPageSize:
 1315 0004 2000      		.word	32
 1316               	.global	XPROG_Param_NVMCMDRegAddr
 1319               	XPROG_Param_NVMCMDRegAddr:
 1320 0006 33        		.byte	51
 1321               	.global	XPROG_Param_NVMCSRRegAddr
 1324               	XPROG_Param_NVMCSRRegAddr:
 1325 0007 32        		.byte	50
 1326               	.global	XPROG_SelectedProtocol
 1327               	.global	XPROG_SelectedProtocol
 1328               		.section .bss
 1331               	XPROG_SelectedProtocol:
 1332 0000 00        		.skip 1,0
 1381               	.Letext0:
DEFINED SYMBOLS
                            *ABS*:00000000 XPROGProtocol.c
     /tmp/ccVa9rqk.s:2      *ABS*:0000003f __SREG__
     /tmp/ccVa9rqk.s:3      *ABS*:0000003e __SP_H__
     /tmp/ccVa9rqk.s:4      *ABS*:0000003d __SP_L__
     /tmp/ccVa9rqk.s:5      *ABS*:00000034 __CCP__
     /tmp/ccVa9rqk.s:6      *ABS*:00000000 __tmp_reg__
     /tmp/ccVa9rqk.s:7      *ABS*:00000001 __zero_reg__
     /tmp/ccVa9rqk.s:19     .text.XPROGProtocol_SetMode:00000000 XPROGProtocol_SetMode
     /tmp/ccVa9rqk.s:1331   .bss:00000000 XPROG_SelectedProtocol
     /tmp/ccVa9rqk.s:102    .text.XPROGProtocol_WriteMemory:00000000 XPROGProtocol_WriteMemory
     /tmp/ccVa9rqk.s:411    .text.XPROGProtocol_ReadMemory:00000000 XPROGProtocol_ReadMemory
     /tmp/ccVa9rqk.s:604    .text.XPROGProtocol_Command:00000000 XPROGProtocol_Command
     /tmp/ccVa9rqk.s:1306   .data:00000000 XPROG_Param_NVMBase
     /tmp/ccVa9rqk.s:1314   .data:00000004 XPROG_Param_EEPageSize
     /tmp/ccVa9rqk.s:1319   .data:00000006 XPROG_Param_NVMCMDRegAddr
     /tmp/ccVa9rqk.s:1324   .data:00000007 XPROG_Param_NVMCSRRegAddr

UNDEFINED SYMBOLS
Endpoint_Read_Stream_LE
Endpoint_WaitUntilReady
XMEGANVM_WritePageMemory
TINYNVM_WriteMemory
XMEGANVM_WriteByteMemory
XMEGANVM_ReadMemory
TINYNVM_ReadMemory
Endpoint_Write_Stream_LE
XMEGANVM_EnablePDI
TINYNVM_EnableTPI
XMEGANVM_DisablePDI
TINYNVM_DisableTPI
XMEGANVM_EraseMemory
TINYNVM_EraseMemory
XMEGANVM_GetMemoryCRC
__do_copy_data
__do_clear_bss
