
main.elf:     file format elf32-avr

Sections:
Idx Name          Size      VMA       LMA       File off  Algn
  0 .data         00000016  00800100  00000f84  00001018  2**0
                  CONTENTS, ALLOC, LOAD, DATA
  1 .text         00000f84  00000000  00000000  00000094  2**1
                  CONTENTS, ALLOC, LOAD, READONLY, CODE
  2 .bss          00000122  00800116  00800116  0000102e  2**0
                  ALLOC
  3 .stab         00000a98  00000000  00000000  00001030  2**2
                  CONTENTS, READONLY, DEBUGGING
  4 .stabstr      0000016f  00000000  00000000  00001ac8  2**0
                  CONTENTS, READONLY, DEBUGGING
  5 .debug_aranges 00000490  00000000  00000000  00001c37  2**0
                  CONTENTS, READONLY, DEBUGGING
  6 .debug_pubnames 00000c88  00000000  00000000  000020c7  2**0
                  CONTENTS, READONLY, DEBUGGING
  7 .debug_info   000083fa  00000000  00000000  00002d4f  2**0
                  CONTENTS, READONLY, DEBUGGING
  8 .debug_abbrev 000020c3  00000000  00000000  0000b149  2**0
                  CONTENTS, READONLY, DEBUGGING
  9 .debug_line   000068e9  00000000  00000000  0000d20c  2**0
                  CONTENTS, READONLY, DEBUGGING
 10 .debug_frame  000006e0  00000000  00000000  00013af8  2**2
                  CONTENTS, READONLY, DEBUGGING
 11 .debug_str    000034c6  00000000  00000000  000141d8  2**0
                  CONTENTS, READONLY, DEBUGGING
 12 .debug_loc    00003685  00000000  00000000  0001769e  2**0
                  CONTENTS, READONLY, DEBUGGING
 13 .debug_ranges 00000578  00000000  00000000  0001ad23  2**0
                  CONTENTS, READONLY, DEBUGGING
 14 .debug_pubtypes 00000012  00000000  00000000  0001b29b  2**0
                  CONTENTS, READONLY, DEBUGGING

Disassembly of section .text:

00000000 <__vectors>:
   0:	a1 c0       	rjmp	.+322    	; 0x144 <__ctors_end>
   2:	00 00       	nop
   4:	ba c0       	rjmp	.+372    	; 0x17a <__bad_interrupt>
   6:	00 00       	nop
   8:	b8 c0       	rjmp	.+368    	; 0x17a <__bad_interrupt>
   a:	00 00       	nop
   c:	b6 c0       	rjmp	.+364    	; 0x17a <__bad_interrupt>
   e:	00 00       	nop
  10:	b4 c0       	rjmp	.+360    	; 0x17a <__bad_interrupt>
  12:	00 00       	nop
  14:	b2 c0       	rjmp	.+356    	; 0x17a <__bad_interrupt>
  16:	00 00       	nop
  18:	b0 c0       	rjmp	.+352    	; 0x17a <__bad_interrupt>
  1a:	00 00       	nop
  1c:	ae c0       	rjmp	.+348    	; 0x17a <__bad_interrupt>
  1e:	00 00       	nop
  20:	ac c0       	rjmp	.+344    	; 0x17a <__bad_interrupt>
  22:	00 00       	nop
  24:	aa c0       	rjmp	.+340    	; 0x17a <__bad_interrupt>
  26:	00 00       	nop
  28:	e9 c2       	rjmp	.+1490   	; 0x5fc <__vector_10>
  2a:	00 00       	nop
  2c:	ae c2       	rjmp	.+1372   	; 0x58a <__vector_11>
  2e:	00 00       	nop
  30:	a4 c0       	rjmp	.+328    	; 0x17a <__bad_interrupt>
  32:	00 00       	nop
  34:	a2 c0       	rjmp	.+324    	; 0x17a <__bad_interrupt>
  36:	00 00       	nop
  38:	a0 c0       	rjmp	.+320    	; 0x17a <__bad_interrupt>
  3a:	00 00       	nop
  3c:	9e c0       	rjmp	.+316    	; 0x17a <__bad_interrupt>
  3e:	00 00       	nop
  40:	9c c0       	rjmp	.+312    	; 0x17a <__bad_interrupt>
  42:	00 00       	nop
  44:	9a c0       	rjmp	.+308    	; 0x17a <__bad_interrupt>
  46:	00 00       	nop
  48:	98 c0       	rjmp	.+304    	; 0x17a <__bad_interrupt>
  4a:	00 00       	nop
  4c:	96 c0       	rjmp	.+300    	; 0x17a <__bad_interrupt>
  4e:	00 00       	nop
  50:	94 c0       	rjmp	.+296    	; 0x17a <__bad_interrupt>
  52:	00 00       	nop
  54:	92 c0       	rjmp	.+292    	; 0x17a <__bad_interrupt>
  56:	00 00       	nop
  58:	90 c0       	rjmp	.+288    	; 0x17a <__bad_interrupt>
  5a:	00 00       	nop
  5c:	8e c0       	rjmp	.+284    	; 0x17a <__bad_interrupt>
  5e:	00 00       	nop
  60:	8c c0       	rjmp	.+280    	; 0x17a <__bad_interrupt>
  62:	00 00       	nop
  64:	cb c0       	rjmp	.+406    	; 0x1fc <__vector_25>
  66:	00 00       	nop
  68:	88 c0       	rjmp	.+272    	; 0x17a <__bad_interrupt>
  6a:	00 00       	nop
  6c:	86 c0       	rjmp	.+268    	; 0x17a <__bad_interrupt>
  6e:	00 00       	nop
  70:	84 c0       	rjmp	.+264    	; 0x17a <__bad_interrupt>
  72:	00 00       	nop
  74:	82 c0       	rjmp	.+260    	; 0x17a <__bad_interrupt>
  76:	00 00       	nop
  78:	80 c0       	rjmp	.+256    	; 0x17a <__bad_interrupt>
  7a:	00 00       	nop
  7c:	7e c0       	rjmp	.+252    	; 0x17a <__bad_interrupt>
  7e:	00 00       	nop
  80:	7c c0       	rjmp	.+248    	; 0x17a <__bad_interrupt>
  82:	00 00       	nop
  84:	7a c0       	rjmp	.+244    	; 0x17a <__bad_interrupt>
  86:	00 00       	nop
  88:	78 c0       	rjmp	.+240    	; 0x17a <__bad_interrupt>
  8a:	00 00       	nop
  8c:	76 c0       	rjmp	.+236    	; 0x17a <__bad_interrupt>
  8e:	00 00       	nop
  90:	74 c0       	rjmp	.+232    	; 0x17a <__bad_interrupt>
  92:	00 00       	nop
  94:	72 c0       	rjmp	.+228    	; 0x17a <__bad_interrupt>
  96:	00 00       	nop
  98:	70 c0       	rjmp	.+224    	; 0x17a <__bad_interrupt>
  9a:	00 00       	nop
  9c:	6e c0       	rjmp	.+220    	; 0x17a <__bad_interrupt>
  9e:	00 00       	nop
  a0:	6c c0       	rjmp	.+216    	; 0x17a <__bad_interrupt>
  a2:	00 00       	nop
  a4:	6a c0       	rjmp	.+212    	; 0x17a <__bad_interrupt>
  a6:	00 00       	nop
  a8:	68 c0       	rjmp	.+208    	; 0x17a <__bad_interrupt>
  aa:	00 00       	nop

000000ac <DeviceDescriptor>:
  ac:	12 01 10 01 02 00 00 08 eb 03 4b 20 01 00 01 02     ..........K ....
  bc:	dc 01                                               ..

000000be <ConfigurationDescriptor>:
  be:	09 02 3e 00 02 01 00 c0 32 09 04 00 00 01 02 02     ..>.....2.......
  ce:	01 00 05 24 00 10 01 04 24 02 06 05 24 06 00 01     ...$....$...$...
  de:	07 05 82 03 08 00 ff 09 04 01 00 02 0a 00 00 00     ................
  ee:	07 05 04 02 10 00 01 07 05 83 02 10 00 01           ..............

000000fc <LanguageString>:
  fc:	04 03 09 04                                         ....

00000100 <ManufacturerString>:
 100:	1a 03 77 00 69 00 72 00 65 00 67 00 61 00 74 00     ..w.i.r.e.g.a.t.
 110:	65 00 2e 00 64 00 65 00 00 00                       e...d.e...

0000011a <ProductString>:
 11a:	30 03 54 00 50 00 55 00 41 00 52 00 54 00 20 00     0.T.P.U.A.R.T. .
 12a:	66 00 6f 00 72 00 20 00 57 00 69 00 72 00 65 00     f.o.r. .W.i.r.e.
 13a:	47 00 61 00 74 00 65 00 00 00                       G.a.t.e...

00000144 <__ctors_end>:
 144:	11 24       	eor	r1, r1
 146:	1f be       	out	0x3f, r1	; 63
 148:	cf ef       	ldi	r28, 0xFF	; 255
 14a:	da e0       	ldi	r29, 0x0A	; 10
 14c:	de bf       	out	0x3e, r29	; 62
 14e:	cd bf       	out	0x3d, r28	; 61

00000150 <__do_copy_data>:
 150:	11 e0       	ldi	r17, 0x01	; 1
 152:	a0 e0       	ldi	r26, 0x00	; 0
 154:	b1 e0       	ldi	r27, 0x01	; 1
 156:	e4 e8       	ldi	r30, 0x84	; 132
 158:	ff e0       	ldi	r31, 0x0F	; 15
 15a:	02 c0       	rjmp	.+4      	; 0x160 <__do_copy_data+0x10>
 15c:	05 90       	lpm	r0, Z+
 15e:	0d 92       	st	X+, r0
 160:	a6 31       	cpi	r26, 0x16	; 22
 162:	b1 07       	cpc	r27, r17
 164:	d9 f7       	brne	.-10     	; 0x15c <__do_copy_data+0xc>

00000166 <__do_clear_bss>:
 166:	12 e0       	ldi	r17, 0x02	; 2
 168:	a6 e1       	ldi	r26, 0x16	; 22
 16a:	b1 e0       	ldi	r27, 0x01	; 1
 16c:	01 c0       	rjmp	.+2      	; 0x170 <.do_clear_bss_start>

0000016e <.do_clear_bss_loop>:
 16e:	1d 92       	st	X+, r1

00000170 <.do_clear_bss_start>:
 170:	a8 33       	cpi	r26, 0x38	; 56
 172:	b1 07       	cpc	r27, r17
 174:	e1 f7       	brne	.-8      	; 0x16e <.do_clear_bss_loop>
 176:	9a d0       	rcall	.+308    	; 0x2ac <main>
 178:	03 c7       	rjmp	.+3590   	; 0xf80 <_exit>

0000017a <__bad_interrupt>:
 17a:	42 cf       	rjmp	.-380    	; 0x0 <__vectors>

0000017c <RingBuffer_Insert>:
 17c:	cf 93       	push	r28
 17e:	df 93       	push	r29
 180:	ec 01       	movw	r28, r24
 182:	e8 81       	ld	r30, Y
 184:	f9 81       	ldd	r31, Y+1	; 0x01
 186:	60 83       	st	Z, r22
 188:	88 81       	ld	r24, Y
 18a:	99 81       	ldd	r25, Y+1	; 0x01
 18c:	01 96       	adiw	r24, 0x01	; 1
 18e:	99 83       	std	Y+1, r25	; 0x01
 190:	88 83       	st	Y, r24
 192:	2e 81       	ldd	r18, Y+6	; 0x06
 194:	3f 81       	ldd	r19, Y+7	; 0x07
 196:	82 17       	cp	r24, r18
 198:	93 07       	cpc	r25, r19
 19a:	21 f4       	brne	.+8      	; 0x1a4 <RingBuffer_Insert+0x28>
 19c:	8c 81       	ldd	r24, Y+4	; 0x04
 19e:	9d 81       	ldd	r25, Y+5	; 0x05
 1a0:	99 83       	std	Y+1, r25	; 0x01
 1a2:	88 83       	st	Y, r24
 1a4:	2f b7       	in	r18, 0x3f	; 63
 1a6:	f8 94       	cli
 1a8:	89 85       	ldd	r24, Y+9	; 0x09
 1aa:	9a 85       	ldd	r25, Y+10	; 0x0a
 1ac:	01 96       	adiw	r24, 0x01	; 1
 1ae:	9a 87       	std	Y+10, r25	; 0x0a
 1b0:	89 87       	std	Y+9, r24	; 0x09
 1b2:	2f bf       	out	0x3f, r18	; 63
 1b4:	df 91       	pop	r29
 1b6:	cf 91       	pop	r28
 1b8:	08 95       	ret

000001ba <RingBuffer_Remove>:
 1ba:	cf 93       	push	r28
 1bc:	df 93       	push	r29
 1be:	ec 01       	movw	r28, r24
 1c0:	ea 81       	ldd	r30, Y+2	; 0x02
 1c2:	fb 81       	ldd	r31, Y+3	; 0x03
 1c4:	31 91       	ld	r19, Z+
 1c6:	fb 83       	std	Y+3, r31	; 0x03
 1c8:	ea 83       	std	Y+2, r30	; 0x02
 1ca:	8e 81       	ldd	r24, Y+6	; 0x06
 1cc:	9f 81       	ldd	r25, Y+7	; 0x07
 1ce:	e8 17       	cp	r30, r24
 1d0:	f9 07       	cpc	r31, r25
 1d2:	21 f4       	brne	.+8      	; 0x1dc <RingBuffer_Remove+0x22>
 1d4:	8c 81       	ldd	r24, Y+4	; 0x04
 1d6:	9d 81       	ldd	r25, Y+5	; 0x05
 1d8:	9b 83       	std	Y+3, r25	; 0x03
 1da:	8a 83       	std	Y+2, r24	; 0x02
 1dc:	2f b7       	in	r18, 0x3f	; 63
 1de:	f8 94       	cli
 1e0:	89 85       	ldd	r24, Y+9	; 0x09
 1e2:	9a 85       	ldd	r25, Y+10	; 0x0a
 1e4:	01 97       	sbiw	r24, 0x01	; 1
 1e6:	9a 87       	std	Y+10, r25	; 0x0a
 1e8:	89 87       	std	Y+9, r24	; 0x09
 1ea:	2f bf       	out	0x3f, r18	; 63
 1ec:	83 2f       	mov	r24, r19
 1ee:	df 91       	pop	r29
 1f0:	cf 91       	pop	r28
 1f2:	08 95       	ret

000001f4 <EVENT_USB_Device_Connect>:
 1f4:	88 98       	cbi	0x11, 0	; 17
 1f6:	08 95       	ret

000001f8 <EVENT_USB_Device_Disconnect>:
 1f8:	88 98       	cbi	0x11, 0	; 17
 1fa:	08 95       	ret

000001fc <__vector_25>:
 1fc:	1f 92       	push	r1
 1fe:	0f 92       	push	r0
 200:	0f b6       	in	r0, 0x3f	; 63
 202:	0f 92       	push	r0
 204:	11 24       	eor	r1, r1
 206:	2f 93       	push	r18
 208:	3f 93       	push	r19
 20a:	4f 93       	push	r20
 20c:	5f 93       	push	r21
 20e:	6f 93       	push	r22
 210:	7f 93       	push	r23
 212:	8f 93       	push	r24
 214:	9f 93       	push	r25
 216:	af 93       	push	r26
 218:	bf 93       	push	r27
 21a:	ef 93       	push	r30
 21c:	ff 93       	push	r31
 21e:	60 91 ce 00 	lds	r22, 0x00CE
 222:	8e b3       	in	r24, 0x1e	; 30
 224:	84 30       	cpi	r24, 0x04	; 4
 226:	19 f4       	brne	.+6      	; 0x22e <__vector_25+0x32>
 228:	81 ea       	ldi	r24, 0xA1	; 161
 22a:	91 e0       	ldi	r25, 0x01	; 1
 22c:	a7 df       	rcall	.-178    	; 0x17c <RingBuffer_Insert>
 22e:	ff 91       	pop	r31
 230:	ef 91       	pop	r30
 232:	bf 91       	pop	r27
 234:	af 91       	pop	r26
 236:	9f 91       	pop	r25
 238:	8f 91       	pop	r24
 23a:	7f 91       	pop	r23
 23c:	6f 91       	pop	r22
 23e:	5f 91       	pop	r21
 240:	4f 91       	pop	r20
 242:	3f 91       	pop	r19
 244:	2f 91       	pop	r18
 246:	0f 90       	pop	r0
 248:	0f be       	out	0x3f, r0	; 63
 24a:	0f 90       	pop	r0
 24c:	1f 90       	pop	r1
 24e:	18 95       	reti

00000250 <EVENT_CDC_Device_LineEncodingChanged>:
 250:	08 95       	ret

00000252 <EVENT_USB_Device_ControlRequest>:
 252:	80 e0       	ldi	r24, 0x00	; 0
 254:	91 e0       	ldi	r25, 0x01	; 1
 256:	27 c6       	rjmp	.+3150   	; 0xea6 <CDC_Device_ProcessControlRequest>

00000258 <EVENT_USB_Device_ConfigurationChanged>:
 258:	80 e0       	ldi	r24, 0x00	; 0
 25a:	91 e0       	ldi	r25, 0x01	; 1
 25c:	d4 c5       	rjmp	.+2984   	; 0xe06 <CDC_Device_ConfigureEndpoints>

0000025e <SetupHardware>:
 25e:	84 b7       	in	r24, 0x34	; 52
 260:	87 7f       	andi	r24, 0xF7	; 247
 262:	84 bf       	out	0x34, r24	; 52
 264:	88 e1       	ldi	r24, 0x18	; 24
 266:	0f b6       	in	r0, 0x3f	; 63
 268:	f8 94       	cli
 26a:	80 93 60 00 	sts	0x0060, r24
 26e:	10 92 60 00 	sts	0x0060, r1
 272:	0f be       	out	0x3f, r0	; 63
 274:	90 e0       	ldi	r25, 0x00	; 0
 276:	80 e8       	ldi	r24, 0x80	; 128
 278:	0f b6       	in	r0, 0x3f	; 63
 27a:	f8 94       	cli
 27c:	80 93 61 00 	sts	0x0061, r24
 280:	90 93 61 00 	sts	0x0061, r25
 284:	0f be       	out	0x3f, r0	; 63
 286:	80 9a       	sbi	0x10, 0	; 16
 288:	88 98       	cbi	0x11, 0	; 17
 28a:	67 d1       	rcall	.+718    	; 0x55a <USB_Init>
 28c:	87 e6       	ldi	r24, 0x67	; 103
 28e:	90 e0       	ldi	r25, 0x00	; 0
 290:	90 93 cd 00 	sts	0x00CD, r25
 294:	80 93 cc 00 	sts	0x00CC, r24
 298:	86 e2       	ldi	r24, 0x26	; 38
 29a:	80 93 ca 00 	sts	0x00CA, r24
 29e:	82 e0       	ldi	r24, 0x02	; 2
 2a0:	80 93 c8 00 	sts	0x00C8, r24
 2a4:	88 e9       	ldi	r24, 0x98	; 152
 2a6:	80 93 c9 00 	sts	0x00C9, r24
 2aa:	08 95       	ret

000002ac <main>:
 2ac:	cf 93       	push	r28
 2ae:	df 93       	push	r29
 2b0:	d6 df       	rcall	.-84     	; 0x25e <SetupHardware>
 2b2:	e6 e1       	ldi	r30, 0x16	; 22
 2b4:	f1 e0       	ldi	r31, 0x01	; 1
 2b6:	2f b7       	in	r18, 0x3f	; 63
 2b8:	f8 94       	cli
 2ba:	81 e2       	ldi	r24, 0x21	; 33
 2bc:	91 e0       	ldi	r25, 0x01	; 1
 2be:	91 83       	std	Z+1, r25	; 0x01
 2c0:	80 83       	st	Z, r24
 2c2:	93 83       	std	Z+3, r25	; 0x03
 2c4:	82 83       	std	Z+2, r24	; 0x02
 2c6:	95 83       	std	Z+5, r25	; 0x05
 2c8:	84 83       	std	Z+4, r24	; 0x04
 2ca:	81 ea       	ldi	r24, 0xA1	; 161
 2cc:	91 e0       	ldi	r25, 0x01	; 1
 2ce:	97 83       	std	Z+7, r25	; 0x07
 2d0:	86 83       	std	Z+6, r24	; 0x06
 2d2:	80 e8       	ldi	r24, 0x80	; 128
 2d4:	80 87       	std	Z+8, r24	; 0x08
 2d6:	12 86       	std	Z+10, r1	; 0x0a
 2d8:	11 86       	std	Z+9, r1	; 0x09
 2da:	2f bf       	out	0x3f, r18	; 63
 2dc:	e1 ea       	ldi	r30, 0xA1	; 161
 2de:	f1 e0       	ldi	r31, 0x01	; 1
 2e0:	2f b7       	in	r18, 0x3f	; 63
 2e2:	f8 94       	cli
 2e4:	8c ea       	ldi	r24, 0xAC	; 172
 2e6:	91 e0       	ldi	r25, 0x01	; 1
 2e8:	91 83       	std	Z+1, r25	; 0x01
 2ea:	80 83       	st	Z, r24
 2ec:	93 83       	std	Z+3, r25	; 0x03
 2ee:	82 83       	std	Z+2, r24	; 0x02
 2f0:	95 83       	std	Z+5, r25	; 0x05
 2f2:	84 83       	std	Z+4, r24	; 0x04
 2f4:	8c e2       	ldi	r24, 0x2C	; 44
 2f6:	92 e0       	ldi	r25, 0x02	; 2
 2f8:	97 83       	std	Z+7, r25	; 0x07
 2fa:	86 83       	std	Z+6, r24	; 0x06
 2fc:	80 e8       	ldi	r24, 0x80	; 128
 2fe:	80 87       	std	Z+8, r24	; 0x08
 300:	12 86       	std	Z+10, r1	; 0x0a
 302:	11 86       	std	Z+9, r1	; 0x09
 304:	2f bf       	out	0x3f, r18	; 63
 306:	88 98       	cbi	0x11, 0	; 17
 308:	78 94       	sei
 30a:	8e b3       	in	r24, 0x1e	; 30
 30c:	91 b3       	in	r25, 0x11	; 17
 30e:	9e 7f       	andi	r25, 0xFE	; 254
 310:	20 e0       	ldi	r18, 0x00	; 0
 312:	84 30       	cpi	r24, 0x04	; 4
 314:	09 f4       	brne	.+2      	; 0x318 <main+0x6c>
 316:	21 e0       	ldi	r18, 0x01	; 1
 318:	92 2b       	or	r25, r18
 31a:	91 bb       	out	0x11, r25	; 17
 31c:	8f b7       	in	r24, 0x3f	; 63
 31e:	f8 94       	cli
 320:	20 91 1f 01 	lds	r18, 0x011F
 324:	30 91 20 01 	lds	r19, 0x0120
 328:	8f bf       	out	0x3f, r24	; 63
 32a:	80 91 1e 01 	lds	r24, 0x011E
 32e:	90 e0       	ldi	r25, 0x00	; 0
 330:	28 17       	cp	r18, r24
 332:	39 07       	cpc	r19, r25
 334:	51 f0       	breq	.+20     	; 0x34a <main+0x9e>
 336:	80 e0       	ldi	r24, 0x00	; 0
 338:	91 e0       	ldi	r25, 0x01	; 1
 33a:	c5 d4       	rcall	.+2442   	; 0xcc6 <CDC_Device_ReceiveByte>
 33c:	bc 01       	movw	r22, r24
 33e:	97 fd       	sbrc	r25, 7
 340:	04 c0       	rjmp	.+8      	; 0x34a <main+0x9e>
 342:	88 98       	cbi	0x11, 0	; 17
 344:	86 e1       	ldi	r24, 0x16	; 22
 346:	91 e0       	ldi	r25, 0x01	; 1
 348:	19 df       	rcall	.-462    	; 0x17c <RingBuffer_Insert>
 34a:	8f b7       	in	r24, 0x3f	; 63
 34c:	f8 94       	cli
 34e:	c0 91 aa 01 	lds	r28, 0x01AA
 352:	d0 91 ab 01 	lds	r29, 0x01AB
 356:	8f bf       	out	0x3f, r24	; 63
 358:	20 97       	sbiw	r28, 0x00	; 0
 35a:	89 f0       	breq	.+34     	; 0x37e <main+0xd2>
 35c:	88 98       	cbi	0x11, 0	; 17
 35e:	e0 91 a3 01 	lds	r30, 0x01A3
 362:	f0 91 a4 01 	lds	r31, 0x01A4
 366:	80 e0       	ldi	r24, 0x00	; 0
 368:	91 e0       	ldi	r25, 0x01	; 1
 36a:	60 81       	ld	r22, Z
 36c:	28 d5       	rcall	.+2640   	; 0xdbe <CDC_Device_SendByte>
 36e:	21 97       	sbiw	r28, 0x01	; 1
 370:	88 23       	and	r24, r24
 372:	29 f4       	brne	.+10     	; 0x37e <main+0xd2>
 374:	81 ea       	ldi	r24, 0xA1	; 161
 376:	91 e0       	ldi	r25, 0x01	; 1
 378:	20 df       	rcall	.-448    	; 0x1ba <RingBuffer_Remove>
 37a:	20 97       	sbiw	r28, 0x00	; 0
 37c:	81 f7       	brne	.-32     	; 0x35e <main+0xb2>
 37e:	2f b7       	in	r18, 0x3f	; 63
 380:	f8 94       	cli
 382:	80 91 1f 01 	lds	r24, 0x011F
 386:	90 91 20 01 	lds	r25, 0x0120
 38a:	2f bf       	out	0x3f, r18	; 63
 38c:	89 2b       	or	r24, r25
 38e:	59 f0       	breq	.+22     	; 0x3a6 <main+0xfa>
 390:	88 98       	cbi	0x11, 0	; 17
 392:	86 e1       	ldi	r24, 0x16	; 22
 394:	91 e0       	ldi	r25, 0x01	; 1
 396:	11 df       	rcall	.-478    	; 0x1ba <RingBuffer_Remove>
 398:	98 2f       	mov	r25, r24
 39a:	80 91 c8 00 	lds	r24, 0x00C8
 39e:	85 ff       	sbrs	r24, 5
 3a0:	fc cf       	rjmp	.-8      	; 0x39a <main+0xee>
 3a2:	90 93 ce 00 	sts	0x00CE, r25
 3a6:	80 e0       	ldi	r24, 0x00	; 0
 3a8:	91 e0       	ldi	r25, 0x01	; 1
 3aa:	fa d4       	rcall	.+2548   	; 0xda0 <CDC_Device_USBTask>
 3ac:	7a d4       	rcall	.+2292   	; 0xca2 <USB_USBTask>
 3ae:	ad cf       	rjmp	.-166    	; 0x30a <main+0x5e>

000003b0 <CALLBACK_USB_GetDescriptor>:
 3b0:	da 01       	movw	r26, r20
 3b2:	92 30       	cpi	r25, 0x02	; 2
 3b4:	49 f0       	breq	.+18     	; 0x3c8 <CALLBACK_USB_GetDescriptor+0x18>
 3b6:	93 30       	cpi	r25, 0x03	; 3
 3b8:	61 f0       	breq	.+24     	; 0x3d2 <CALLBACK_USB_GetDescriptor+0x22>
 3ba:	91 30       	cpi	r25, 0x01	; 1
 3bc:	f9 f4       	brne	.+62     	; 0x3fc <CALLBACK_USB_GetDescriptor+0x4c>
 3be:	ec ea       	ldi	r30, 0xAC	; 172
 3c0:	f0 e0       	ldi	r31, 0x00	; 0
 3c2:	22 e1       	ldi	r18, 0x12	; 18
 3c4:	30 e0       	ldi	r19, 0x00	; 0
 3c6:	1e c0       	rjmp	.+60     	; 0x404 <CALLBACK_USB_GetDescriptor+0x54>
 3c8:	ee eb       	ldi	r30, 0xBE	; 190
 3ca:	f0 e0       	ldi	r31, 0x00	; 0
 3cc:	2e e3       	ldi	r18, 0x3E	; 62
 3ce:	30 e0       	ldi	r19, 0x00	; 0
 3d0:	19 c0       	rjmp	.+50     	; 0x404 <CALLBACK_USB_GetDescriptor+0x54>
 3d2:	81 30       	cpi	r24, 0x01	; 1
 3d4:	49 f0       	breq	.+18     	; 0x3e8 <CALLBACK_USB_GetDescriptor+0x38>
 3d6:	81 30       	cpi	r24, 0x01	; 1
 3d8:	18 f0       	brcs	.+6      	; 0x3e0 <CALLBACK_USB_GetDescriptor+0x30>
 3da:	82 30       	cpi	r24, 0x02	; 2
 3dc:	79 f4       	brne	.+30     	; 0x3fc <CALLBACK_USB_GetDescriptor+0x4c>
 3de:	08 c0       	rjmp	.+16     	; 0x3f0 <CALLBACK_USB_GetDescriptor+0x40>
 3e0:	ec ef       	ldi	r30, 0xFC	; 252
 3e2:	f0 e0       	ldi	r31, 0x00	; 0
 3e4:	84 91       	lpm	r24, Z+
 3e6:	07 c0       	rjmp	.+14     	; 0x3f6 <CALLBACK_USB_GetDescriptor+0x46>
 3e8:	e0 e0       	ldi	r30, 0x00	; 0
 3ea:	f1 e0       	ldi	r31, 0x01	; 1
 3ec:	84 91       	lpm	r24, Z+
 3ee:	03 c0       	rjmp	.+6      	; 0x3f6 <CALLBACK_USB_GetDescriptor+0x46>
 3f0:	ea e1       	ldi	r30, 0x1A	; 26
 3f2:	f1 e0       	ldi	r31, 0x01	; 1
 3f4:	84 91       	lpm	r24, Z+
 3f6:	28 2f       	mov	r18, r24
 3f8:	30 e0       	ldi	r19, 0x00	; 0
 3fa:	04 c0       	rjmp	.+8      	; 0x404 <CALLBACK_USB_GetDescriptor+0x54>
 3fc:	e0 e0       	ldi	r30, 0x00	; 0
 3fe:	f0 e0       	ldi	r31, 0x00	; 0
 400:	20 e0       	ldi	r18, 0x00	; 0
 402:	30 e0       	ldi	r19, 0x00	; 0
 404:	ed 93       	st	X+, r30
 406:	fc 93       	st	X, r31
 408:	c9 01       	movw	r24, r18
 40a:	08 95       	ret

0000040c <Endpoint_ConfigureEndpoint_Prv>:
 40c:	80 93 e9 00 	sts	0x00E9, r24
 410:	80 91 eb 00 	lds	r24, 0x00EB
 414:	81 60       	ori	r24, 0x01	; 1
 416:	80 93 eb 00 	sts	0x00EB, r24
 41a:	10 92 ed 00 	sts	0x00ED, r1
 41e:	60 93 ec 00 	sts	0x00EC, r22
 422:	40 93 ed 00 	sts	0x00ED, r20
 426:	80 91 ee 00 	lds	r24, 0x00EE
 42a:	88 1f       	adc	r24, r24
 42c:	88 27       	eor	r24, r24
 42e:	88 1f       	adc	r24, r24
 430:	08 95       	ret

00000432 <Endpoint_ClearStatusStage>:
 432:	80 91 30 02 	lds	r24, 0x0230
 436:	88 23       	and	r24, r24
 438:	8c f4       	brge	.+34     	; 0x45c <Endpoint_ClearStatusStage+0x2a>
 43a:	03 c0       	rjmp	.+6      	; 0x442 <Endpoint_ClearStatusStage+0x10>
 43c:	8e b3       	in	r24, 0x1e	; 30
 43e:	88 23       	and	r24, r24
 440:	b1 f0       	breq	.+44     	; 0x46e <Endpoint_ClearStatusStage+0x3c>
 442:	80 91 e8 00 	lds	r24, 0x00E8
 446:	82 ff       	sbrs	r24, 2
 448:	f9 cf       	rjmp	.-14     	; 0x43c <Endpoint_ClearStatusStage+0xa>
 44a:	80 91 e8 00 	lds	r24, 0x00E8
 44e:	8b 77       	andi	r24, 0x7B	; 123
 450:	80 93 e8 00 	sts	0x00E8, r24
 454:	08 95       	ret
 456:	8e b3       	in	r24, 0x1e	; 30
 458:	88 23       	and	r24, r24
 45a:	49 f0       	breq	.+18     	; 0x46e <Endpoint_ClearStatusStage+0x3c>
 45c:	80 91 e8 00 	lds	r24, 0x00E8
 460:	80 ff       	sbrs	r24, 0
 462:	f9 cf       	rjmp	.-14     	; 0x456 <Endpoint_ClearStatusStage+0x24>
 464:	80 91 e8 00 	lds	r24, 0x00E8
 468:	8e 77       	andi	r24, 0x7E	; 126
 46a:	80 93 e8 00 	sts	0x00E8, r24
 46e:	08 95       	ret

00000470 <Endpoint_WaitUntilReady>:
 470:	40 91 e4 00 	lds	r20, 0x00E4
 474:	50 91 e5 00 	lds	r21, 0x00E5
 478:	24 e6       	ldi	r18, 0x64	; 100
 47a:	80 91 ec 00 	lds	r24, 0x00EC
 47e:	80 78       	andi	r24, 0x80	; 128
 480:	80 38       	cpi	r24, 0x80	; 128
 482:	29 f4       	brne	.+10     	; 0x48e <Endpoint_WaitUntilReady+0x1e>
 484:	80 91 e8 00 	lds	r24, 0x00E8
 488:	80 ff       	sbrs	r24, 0
 48a:	05 c0       	rjmp	.+10     	; 0x496 <Endpoint_WaitUntilReady+0x26>
 48c:	21 c0       	rjmp	.+66     	; 0x4d0 <Endpoint_WaitUntilReady+0x60>
 48e:	80 91 e8 00 	lds	r24, 0x00E8
 492:	82 fd       	sbrc	r24, 2
 494:	1d c0       	rjmp	.+58     	; 0x4d0 <Endpoint_WaitUntilReady+0x60>
 496:	8e b3       	in	r24, 0x1e	; 30
 498:	88 23       	and	r24, r24
 49a:	11 f4       	brne	.+4      	; 0x4a0 <Endpoint_WaitUntilReady+0x30>
 49c:	82 e0       	ldi	r24, 0x02	; 2
 49e:	08 95       	ret
 4a0:	85 30       	cpi	r24, 0x05	; 5
 4a2:	11 f4       	brne	.+4      	; 0x4a8 <Endpoint_WaitUntilReady+0x38>
 4a4:	83 e0       	ldi	r24, 0x03	; 3
 4a6:	08 95       	ret
 4a8:	80 91 eb 00 	lds	r24, 0x00EB
 4ac:	85 ff       	sbrs	r24, 5
 4ae:	02 c0       	rjmp	.+4      	; 0x4b4 <Endpoint_WaitUntilReady+0x44>
 4b0:	81 e0       	ldi	r24, 0x01	; 1
 4b2:	08 95       	ret
 4b4:	80 91 e4 00 	lds	r24, 0x00E4
 4b8:	90 91 e5 00 	lds	r25, 0x00E5
 4bc:	84 17       	cp	r24, r20
 4be:	95 07       	cpc	r25, r21
 4c0:	e1 f2       	breq	.-72     	; 0x47a <Endpoint_WaitUntilReady+0xa>
 4c2:	22 23       	and	r18, r18
 4c4:	11 f4       	brne	.+4      	; 0x4ca <Endpoint_WaitUntilReady+0x5a>
 4c6:	84 e0       	ldi	r24, 0x04	; 4
 4c8:	08 95       	ret
 4ca:	21 50       	subi	r18, 0x01	; 1
 4cc:	ac 01       	movw	r20, r24
 4ce:	d5 cf       	rjmp	.-86     	; 0x47a <Endpoint_WaitUntilReady+0xa>
 4d0:	80 e0       	ldi	r24, 0x00	; 0
 4d2:	08 95       	ret

000004d4 <USB_ResetInterface>:
 4d4:	ef 92       	push	r14
 4d6:	ff 92       	push	r15
 4d8:	0f 93       	push	r16
 4da:	1f 93       	push	r17
 4dc:	49 d0       	rcall	.+146    	; 0x570 <USB_INT_DisableAllInterrupts>
 4de:	50 d0       	rcall	.+160    	; 0x580 <USB_INT_ClearAllInterrupts>
 4e0:	08 ed       	ldi	r16, 0xD8	; 216
 4e2:	10 e0       	ldi	r17, 0x00	; 0
 4e4:	f8 01       	movw	r30, r16
 4e6:	80 81       	ld	r24, Z
 4e8:	8f 77       	andi	r24, 0x7F	; 127
 4ea:	80 83       	st	Z, r24
 4ec:	80 81       	ld	r24, Z
 4ee:	80 68       	ori	r24, 0x80	; 128
 4f0:	80 83       	st	Z, r24
 4f2:	80 81       	ld	r24, Z
 4f4:	8f 7d       	andi	r24, 0xDF	; 223
 4f6:	80 83       	st	Z, r24
 4f8:	19 bc       	out	0x29, r1	; 41
 4fa:	1e ba       	out	0x1e, r1	; 30
 4fc:	10 92 2c 02 	sts	0x022C, r1
 500:	10 92 2e 02 	sts	0x022E, r1
 504:	10 92 2d 02 	sts	0x022D, r1
 508:	80 ee       	ldi	r24, 0xE0	; 224
 50a:	e8 2e       	mov	r14, r24
 50c:	f1 2c       	mov	r15, r1
 50e:	f7 01       	movw	r30, r14
 510:	80 81       	ld	r24, Z
 512:	8b 7f       	andi	r24, 0xFB	; 251
 514:	80 83       	st	Z, r24
 516:	f8 01       	movw	r30, r16
 518:	80 81       	ld	r24, Z
 51a:	81 60       	ori	r24, 0x01	; 1
 51c:	80 83       	st	Z, r24
 51e:	80 e0       	ldi	r24, 0x00	; 0
 520:	60 e0       	ldi	r22, 0x00	; 0
 522:	42 e0       	ldi	r20, 0x02	; 2
 524:	73 df       	rcall	.-282    	; 0x40c <Endpoint_ConfigureEndpoint_Prv>
 526:	e1 ee       	ldi	r30, 0xE1	; 225
 528:	f0 e0       	ldi	r31, 0x00	; 0
 52a:	80 81       	ld	r24, Z
 52c:	8e 7f       	andi	r24, 0xFE	; 254
 52e:	80 83       	st	Z, r24
 530:	e2 ee       	ldi	r30, 0xE2	; 226
 532:	f0 e0       	ldi	r31, 0x00	; 0
 534:	80 81       	ld	r24, Z
 536:	81 60       	ori	r24, 0x01	; 1
 538:	80 83       	st	Z, r24
 53a:	80 81       	ld	r24, Z
 53c:	88 60       	ori	r24, 0x08	; 8
 53e:	80 83       	st	Z, r24
 540:	f7 01       	movw	r30, r14
 542:	80 81       	ld	r24, Z
 544:	8e 7f       	andi	r24, 0xFE	; 254
 546:	80 83       	st	Z, r24
 548:	f8 01       	movw	r30, r16
 54a:	80 81       	ld	r24, Z
 54c:	80 61       	ori	r24, 0x10	; 16
 54e:	80 83       	st	Z, r24
 550:	1f 91       	pop	r17
 552:	0f 91       	pop	r16
 554:	ff 90       	pop	r15
 556:	ef 90       	pop	r14
 558:	08 95       	ret

0000055a <USB_Init>:
 55a:	e7 ed       	ldi	r30, 0xD7	; 215
 55c:	f0 e0       	ldi	r31, 0x00	; 0
 55e:	80 81       	ld	r24, Z
 560:	81 60       	ori	r24, 0x01	; 1
 562:	80 83       	st	Z, r24
 564:	8a e4       	ldi	r24, 0x4A	; 74
 566:	82 bf       	out	0x32, r24	; 50
 568:	81 e0       	ldi	r24, 0x01	; 1
 56a:	80 93 2f 02 	sts	0x022F, r24
 56e:	b2 cf       	rjmp	.-156    	; 0x4d4 <USB_ResetInterface>

00000570 <USB_INT_DisableAllInterrupts>:
 570:	e8 ed       	ldi	r30, 0xD8	; 216
 572:	f0 e0       	ldi	r31, 0x00	; 0
 574:	80 81       	ld	r24, Z
 576:	8e 7f       	andi	r24, 0xFE	; 254
 578:	80 83       	st	Z, r24
 57a:	10 92 e2 00 	sts	0x00E2, r1
 57e:	08 95       	ret

00000580 <USB_INT_ClearAllInterrupts>:
 580:	10 92 da 00 	sts	0x00DA, r1
 584:	10 92 e1 00 	sts	0x00E1, r1
 588:	08 95       	ret

0000058a <__vector_11>:
 58a:	1f 92       	push	r1
 58c:	0f 92       	push	r0
 58e:	0f b6       	in	r0, 0x3f	; 63
 590:	0f 92       	push	r0
 592:	11 24       	eor	r1, r1
 594:	1f 93       	push	r17
 596:	2f 93       	push	r18
 598:	3f 93       	push	r19
 59a:	4f 93       	push	r20
 59c:	5f 93       	push	r21
 59e:	6f 93       	push	r22
 5a0:	7f 93       	push	r23
 5a2:	8f 93       	push	r24
 5a4:	9f 93       	push	r25
 5a6:	af 93       	push	r26
 5a8:	bf 93       	push	r27
 5aa:	ef 93       	push	r30
 5ac:	ff 93       	push	r31
 5ae:	e9 ee       	ldi	r30, 0xE9	; 233
 5b0:	f0 e0       	ldi	r31, 0x00	; 0
 5b2:	10 81       	ld	r17, Z
 5b4:	17 70       	andi	r17, 0x07	; 7
 5b6:	10 82       	st	Z, r1
 5b8:	e0 ef       	ldi	r30, 0xF0	; 240
 5ba:	f0 e0       	ldi	r31, 0x00	; 0
 5bc:	80 81       	ld	r24, Z
 5be:	87 7f       	andi	r24, 0xF7	; 247
 5c0:	80 83       	st	Z, r24
 5c2:	78 94       	sei
 5c4:	ed d1       	rcall	.+986    	; 0x9a0 <USB_Device_ProcessControlRequest>
 5c6:	a9 ee       	ldi	r26, 0xE9	; 233
 5c8:	b0 e0       	ldi	r27, 0x00	; 0
 5ca:	1c 92       	st	X, r1
 5cc:	e0 ef       	ldi	r30, 0xF0	; 240
 5ce:	f0 e0       	ldi	r31, 0x00	; 0
 5d0:	80 81       	ld	r24, Z
 5d2:	88 60       	ori	r24, 0x08	; 8
 5d4:	80 83       	st	Z, r24
 5d6:	1c 93       	st	X, r17
 5d8:	ff 91       	pop	r31
 5da:	ef 91       	pop	r30
 5dc:	bf 91       	pop	r27
 5de:	af 91       	pop	r26
 5e0:	9f 91       	pop	r25
 5e2:	8f 91       	pop	r24
 5e4:	7f 91       	pop	r23
 5e6:	6f 91       	pop	r22
 5e8:	5f 91       	pop	r21
 5ea:	4f 91       	pop	r20
 5ec:	3f 91       	pop	r19
 5ee:	2f 91       	pop	r18
 5f0:	1f 91       	pop	r17
 5f2:	0f 90       	pop	r0
 5f4:	0f be       	out	0x3f, r0	; 63
 5f6:	0f 90       	pop	r0
 5f8:	1f 90       	pop	r1
 5fa:	18 95       	reti

000005fc <__vector_10>:
 5fc:	1f 92       	push	r1
 5fe:	0f 92       	push	r0
 600:	0f b6       	in	r0, 0x3f	; 63
 602:	0f 92       	push	r0
 604:	11 24       	eor	r1, r1
 606:	2f 93       	push	r18
 608:	3f 93       	push	r19
 60a:	4f 93       	push	r20
 60c:	5f 93       	push	r21
 60e:	6f 93       	push	r22
 610:	7f 93       	push	r23
 612:	8f 93       	push	r24
 614:	9f 93       	push	r25
 616:	af 93       	push	r26
 618:	bf 93       	push	r27
 61a:	ef 93       	push	r30
 61c:	ff 93       	push	r31
 61e:	80 91 e1 00 	lds	r24, 0x00E1
 622:	82 ff       	sbrs	r24, 2
 624:	0a c0       	rjmp	.+20     	; 0x63a <__vector_10+0x3e>
 626:	80 91 e2 00 	lds	r24, 0x00E2
 62a:	82 ff       	sbrs	r24, 2
 62c:	06 c0       	rjmp	.+12     	; 0x63a <__vector_10+0x3e>
 62e:	80 91 e1 00 	lds	r24, 0x00E1
 632:	8b 7f       	andi	r24, 0xFB	; 251
 634:	80 93 e1 00 	sts	0x00E1, r24
 638:	33 d3       	rcall	.+1638   	; 0xca0 <USB_Event_Stub>
 63a:	80 91 da 00 	lds	r24, 0x00DA
 63e:	80 ff       	sbrs	r24, 0
 640:	1b c0       	rjmp	.+54     	; 0x678 <__vector_10+0x7c>
 642:	80 91 d8 00 	lds	r24, 0x00D8
 646:	80 ff       	sbrs	r24, 0
 648:	17 c0       	rjmp	.+46     	; 0x678 <__vector_10+0x7c>
 64a:	80 91 da 00 	lds	r24, 0x00DA
 64e:	8e 7f       	andi	r24, 0xFE	; 254
 650:	80 93 da 00 	sts	0x00DA, r24
 654:	80 91 d9 00 	lds	r24, 0x00D9
 658:	80 ff       	sbrs	r24, 0
 65a:	0b c0       	rjmp	.+22     	; 0x672 <__vector_10+0x76>
 65c:	80 e1       	ldi	r24, 0x10	; 16
 65e:	89 bd       	out	0x29, r24	; 41
 660:	82 e1       	ldi	r24, 0x12	; 18
 662:	89 bd       	out	0x29, r24	; 41
 664:	09 b4       	in	r0, 0x29	; 41
 666:	00 fe       	sbrs	r0, 0
 668:	fd cf       	rjmp	.-6      	; 0x664 <__vector_10+0x68>
 66a:	81 e0       	ldi	r24, 0x01	; 1
 66c:	8e bb       	out	0x1e, r24	; 30
 66e:	c2 dd       	rcall	.-1148   	; 0x1f4 <EVENT_USB_Device_Connect>
 670:	03 c0       	rjmp	.+6      	; 0x678 <__vector_10+0x7c>
 672:	19 bc       	out	0x29, r1	; 41
 674:	1e ba       	out	0x1e, r1	; 30
 676:	c0 dd       	rcall	.-1152   	; 0x1f8 <EVENT_USB_Device_Disconnect>
 678:	80 91 e1 00 	lds	r24, 0x00E1
 67c:	80 ff       	sbrs	r24, 0
 67e:	17 c0       	rjmp	.+46     	; 0x6ae <__vector_10+0xb2>
 680:	80 91 e2 00 	lds	r24, 0x00E2
 684:	80 ff       	sbrs	r24, 0
 686:	13 c0       	rjmp	.+38     	; 0x6ae <__vector_10+0xb2>
 688:	80 91 e2 00 	lds	r24, 0x00E2
 68c:	8e 7f       	andi	r24, 0xFE	; 254
 68e:	80 93 e2 00 	sts	0x00E2, r24
 692:	80 91 e2 00 	lds	r24, 0x00E2
 696:	80 61       	ori	r24, 0x10	; 16
 698:	80 93 e2 00 	sts	0x00E2, r24
 69c:	80 91 d8 00 	lds	r24, 0x00D8
 6a0:	80 62       	ori	r24, 0x20	; 32
 6a2:	80 93 d8 00 	sts	0x00D8, r24
 6a6:	19 bc       	out	0x29, r1	; 41
 6a8:	85 e0       	ldi	r24, 0x05	; 5
 6aa:	8e bb       	out	0x1e, r24	; 30
 6ac:	f9 d2       	rcall	.+1522   	; 0xca0 <USB_Event_Stub>
 6ae:	80 91 e1 00 	lds	r24, 0x00E1
 6b2:	84 ff       	sbrs	r24, 4
 6b4:	2c c0       	rjmp	.+88     	; 0x70e <__vector_10+0x112>
 6b6:	80 91 e2 00 	lds	r24, 0x00E2
 6ba:	84 ff       	sbrs	r24, 4
 6bc:	28 c0       	rjmp	.+80     	; 0x70e <__vector_10+0x112>
 6be:	80 e1       	ldi	r24, 0x10	; 16
 6c0:	89 bd       	out	0x29, r24	; 41
 6c2:	82 e1       	ldi	r24, 0x12	; 18
 6c4:	89 bd       	out	0x29, r24	; 41
 6c6:	09 b4       	in	r0, 0x29	; 41
 6c8:	00 fe       	sbrs	r0, 0
 6ca:	fd cf       	rjmp	.-6      	; 0x6c6 <__vector_10+0xca>
 6cc:	80 91 d8 00 	lds	r24, 0x00D8
 6d0:	8f 7d       	andi	r24, 0xDF	; 223
 6d2:	80 93 d8 00 	sts	0x00D8, r24
 6d6:	80 91 e1 00 	lds	r24, 0x00E1
 6da:	8f 7e       	andi	r24, 0xEF	; 239
 6dc:	80 93 e1 00 	sts	0x00E1, r24
 6e0:	80 91 e2 00 	lds	r24, 0x00E2
 6e4:	8f 7e       	andi	r24, 0xEF	; 239
 6e6:	80 93 e2 00 	sts	0x00E2, r24
 6ea:	80 91 e2 00 	lds	r24, 0x00E2
 6ee:	81 60       	ori	r24, 0x01	; 1
 6f0:	80 93 e2 00 	sts	0x00E2, r24
 6f4:	80 91 2c 02 	lds	r24, 0x022C
 6f8:	88 23       	and	r24, r24
 6fa:	31 f4       	brne	.+12     	; 0x708 <__vector_10+0x10c>
 6fc:	80 91 e3 00 	lds	r24, 0x00E3
 700:	87 fd       	sbrc	r24, 7
 702:	02 c0       	rjmp	.+4      	; 0x708 <__vector_10+0x10c>
 704:	81 e0       	ldi	r24, 0x01	; 1
 706:	01 c0       	rjmp	.+2      	; 0x70a <__vector_10+0x10e>
 708:	84 e0       	ldi	r24, 0x04	; 4
 70a:	8e bb       	out	0x1e, r24	; 30
 70c:	c9 d2       	rcall	.+1426   	; 0xca0 <USB_Event_Stub>
 70e:	80 91 e1 00 	lds	r24, 0x00E1
 712:	83 ff       	sbrs	r24, 3
 714:	26 c0       	rjmp	.+76     	; 0x762 <__vector_10+0x166>
 716:	80 91 e2 00 	lds	r24, 0x00E2
 71a:	83 ff       	sbrs	r24, 3
 71c:	22 c0       	rjmp	.+68     	; 0x762 <__vector_10+0x166>
 71e:	80 91 e1 00 	lds	r24, 0x00E1
 722:	87 7f       	andi	r24, 0xF7	; 247
 724:	80 93 e1 00 	sts	0x00E1, r24
 728:	82 e0       	ldi	r24, 0x02	; 2
 72a:	8e bb       	out	0x1e, r24	; 30
 72c:	10 92 2c 02 	sts	0x022C, r1
 730:	80 91 e1 00 	lds	r24, 0x00E1
 734:	8e 7f       	andi	r24, 0xFE	; 254
 736:	80 93 e1 00 	sts	0x00E1, r24
 73a:	80 91 e2 00 	lds	r24, 0x00E2
 73e:	8e 7f       	andi	r24, 0xFE	; 254
 740:	80 93 e2 00 	sts	0x00E2, r24
 744:	80 91 e2 00 	lds	r24, 0x00E2
 748:	80 61       	ori	r24, 0x10	; 16
 74a:	80 93 e2 00 	sts	0x00E2, r24
 74e:	80 e0       	ldi	r24, 0x00	; 0
 750:	60 e0       	ldi	r22, 0x00	; 0
 752:	42 e0       	ldi	r20, 0x02	; 2
 754:	5b de       	rcall	.-842    	; 0x40c <Endpoint_ConfigureEndpoint_Prv>
 756:	80 91 f0 00 	lds	r24, 0x00F0
 75a:	88 60       	ori	r24, 0x08	; 8
 75c:	80 93 f0 00 	sts	0x00F0, r24
 760:	9f d2       	rcall	.+1342   	; 0xca0 <USB_Event_Stub>
 762:	ff 91       	pop	r31
 764:	ef 91       	pop	r30
 766:	bf 91       	pop	r27
 768:	af 91       	pop	r26
 76a:	9f 91       	pop	r25
 76c:	8f 91       	pop	r24
 76e:	7f 91       	pop	r23
 770:	6f 91       	pop	r22
 772:	5f 91       	pop	r21
 774:	4f 91       	pop	r20
 776:	3f 91       	pop	r19
 778:	2f 91       	pop	r18
 77a:	0f 90       	pop	r0
 77c:	0f be       	out	0x3f, r0	; 63
 77e:	0f 90       	pop	r0
 780:	1f 90       	pop	r1
 782:	18 95       	reti

00000784 <Endpoint_Write_Control_Stream_LE>:
 784:	9c 01       	movw	r18, r24
 786:	40 91 36 02 	lds	r20, 0x0236
 78a:	50 91 37 02 	lds	r21, 0x0237
 78e:	46 17       	cp	r20, r22
 790:	57 07       	cpc	r21, r23
 792:	18 f4       	brcc	.+6      	; 0x79a <Endpoint_Write_Control_Stream_LE+0x16>
 794:	f9 01       	movw	r30, r18
 796:	90 e0       	ldi	r25, 0x00	; 0
 798:	44 c0       	rjmp	.+136    	; 0x822 <Endpoint_Write_Control_Stream_LE+0x9e>
 79a:	61 15       	cp	r22, r1
 79c:	71 05       	cpc	r23, r1
 79e:	11 f0       	breq	.+4      	; 0x7a4 <Endpoint_Write_Control_Stream_LE+0x20>
 7a0:	ab 01       	movw	r20, r22
 7a2:	f8 cf       	rjmp	.-16     	; 0x794 <Endpoint_Write_Control_Stream_LE+0x10>
 7a4:	80 91 e8 00 	lds	r24, 0x00E8
 7a8:	8e 77       	andi	r24, 0x7E	; 126
 7aa:	80 93 e8 00 	sts	0x00E8, r24
 7ae:	40 e0       	ldi	r20, 0x00	; 0
 7b0:	50 e0       	ldi	r21, 0x00	; 0
 7b2:	f0 cf       	rjmp	.-32     	; 0x794 <Endpoint_Write_Control_Stream_LE+0x10>
 7b4:	8e b3       	in	r24, 0x1e	; 30
 7b6:	88 23       	and	r24, r24
 7b8:	09 f4       	brne	.+2      	; 0x7bc <Endpoint_Write_Control_Stream_LE+0x38>
 7ba:	44 c0       	rjmp	.+136    	; 0x844 <Endpoint_Write_Control_Stream_LE+0xc0>
 7bc:	85 30       	cpi	r24, 0x05	; 5
 7be:	09 f4       	brne	.+2      	; 0x7c2 <Endpoint_Write_Control_Stream_LE+0x3e>
 7c0:	43 c0       	rjmp	.+134    	; 0x848 <Endpoint_Write_Control_Stream_LE+0xc4>
 7c2:	80 91 e8 00 	lds	r24, 0x00E8
 7c6:	83 ff       	sbrs	r24, 3
 7c8:	02 c0       	rjmp	.+4      	; 0x7ce <Endpoint_Write_Control_Stream_LE+0x4a>
 7ca:	81 e0       	ldi	r24, 0x01	; 1
 7cc:	08 95       	ret
 7ce:	80 91 e8 00 	lds	r24, 0x00E8
 7d2:	82 fd       	sbrc	r24, 2
 7d4:	31 c0       	rjmp	.+98     	; 0x838 <Endpoint_Write_Control_Stream_LE+0xb4>
 7d6:	80 91 e8 00 	lds	r24, 0x00E8
 7da:	80 ff       	sbrs	r24, 0
 7dc:	22 c0       	rjmp	.+68     	; 0x822 <Endpoint_Write_Control_Stream_LE+0x9e>
 7de:	80 91 f3 00 	lds	r24, 0x00F3
 7e2:	90 91 f2 00 	lds	r25, 0x00F2
 7e6:	78 2f       	mov	r23, r24
 7e8:	60 e0       	ldi	r22, 0x00	; 0
 7ea:	29 2f       	mov	r18, r25
 7ec:	30 e0       	ldi	r19, 0x00	; 0
 7ee:	26 2b       	or	r18, r22
 7f0:	37 2b       	or	r19, r23
 7f2:	07 c0       	rjmp	.+14     	; 0x802 <Endpoint_Write_Control_Stream_LE+0x7e>
 7f4:	81 91       	ld	r24, Z+
 7f6:	80 93 f1 00 	sts	0x00F1, r24
 7fa:	41 50       	subi	r20, 0x01	; 1
 7fc:	50 40       	sbci	r21, 0x00	; 0
 7fe:	2f 5f       	subi	r18, 0xFF	; 255
 800:	3f 4f       	sbci	r19, 0xFF	; 255
 802:	41 15       	cp	r20, r1
 804:	51 05       	cpc	r21, r1
 806:	19 f0       	breq	.+6      	; 0x80e <Endpoint_Write_Control_Stream_LE+0x8a>
 808:	28 30       	cpi	r18, 0x08	; 8
 80a:	31 05       	cpc	r19, r1
 80c:	98 f3       	brcs	.-26     	; 0x7f4 <Endpoint_Write_Control_Stream_LE+0x70>
 80e:	90 e0       	ldi	r25, 0x00	; 0
 810:	28 30       	cpi	r18, 0x08	; 8
 812:	31 05       	cpc	r19, r1
 814:	09 f4       	brne	.+2      	; 0x818 <Endpoint_Write_Control_Stream_LE+0x94>
 816:	91 e0       	ldi	r25, 0x01	; 1
 818:	80 91 e8 00 	lds	r24, 0x00E8
 81c:	8e 77       	andi	r24, 0x7E	; 126
 81e:	80 93 e8 00 	sts	0x00E8, r24
 822:	41 15       	cp	r20, r1
 824:	51 05       	cpc	r21, r1
 826:	31 f6       	brne	.-116    	; 0x7b4 <Endpoint_Write_Control_Stream_LE+0x30>
 828:	99 23       	and	r25, r25
 82a:	21 f6       	brne	.-120    	; 0x7b4 <Endpoint_Write_Control_Stream_LE+0x30>
 82c:	05 c0       	rjmp	.+10     	; 0x838 <Endpoint_Write_Control_Stream_LE+0xb4>
 82e:	8e b3       	in	r24, 0x1e	; 30
 830:	88 23       	and	r24, r24
 832:	41 f0       	breq	.+16     	; 0x844 <Endpoint_Write_Control_Stream_LE+0xc0>
 834:	85 30       	cpi	r24, 0x05	; 5
 836:	41 f0       	breq	.+16     	; 0x848 <Endpoint_Write_Control_Stream_LE+0xc4>
 838:	80 91 e8 00 	lds	r24, 0x00E8
 83c:	82 ff       	sbrs	r24, 2
 83e:	f7 cf       	rjmp	.-18     	; 0x82e <Endpoint_Write_Control_Stream_LE+0xaa>
 840:	80 e0       	ldi	r24, 0x00	; 0
 842:	08 95       	ret
 844:	82 e0       	ldi	r24, 0x02	; 2
 846:	08 95       	ret
 848:	83 e0       	ldi	r24, 0x03	; 3
 84a:	08 95       	ret

0000084c <Endpoint_Read_Control_Stream_LE>:
 84c:	9c 01       	movw	r18, r24
 84e:	61 15       	cp	r22, r1
 850:	71 05       	cpc	r23, r1
 852:	29 f4       	brne	.+10     	; 0x85e <Endpoint_Read_Control_Stream_LE+0x12>
 854:	80 91 e8 00 	lds	r24, 0x00E8
 858:	8b 77       	andi	r24, 0x7B	; 123
 85a:	80 93 e8 00 	sts	0x00E8, r24
 85e:	f9 01       	movw	r30, r18
 860:	26 c0       	rjmp	.+76     	; 0x8ae <Endpoint_Read_Control_Stream_LE+0x62>
 862:	8e b3       	in	r24, 0x1e	; 30
 864:	88 23       	and	r24, r24
 866:	91 f1       	breq	.+100    	; 0x8cc <Endpoint_Read_Control_Stream_LE+0x80>
 868:	85 30       	cpi	r24, 0x05	; 5
 86a:	91 f1       	breq	.+100    	; 0x8d0 <Endpoint_Read_Control_Stream_LE+0x84>
 86c:	80 91 e8 00 	lds	r24, 0x00E8
 870:	83 ff       	sbrs	r24, 3
 872:	02 c0       	rjmp	.+4      	; 0x878 <Endpoint_Read_Control_Stream_LE+0x2c>
 874:	81 e0       	ldi	r24, 0x01	; 1
 876:	08 95       	ret
 878:	80 91 e8 00 	lds	r24, 0x00E8
 87c:	82 ff       	sbrs	r24, 2
 87e:	f1 cf       	rjmp	.-30     	; 0x862 <Endpoint_Read_Control_Stream_LE+0x16>
 880:	06 c0       	rjmp	.+12     	; 0x88e <Endpoint_Read_Control_Stream_LE+0x42>
 882:	80 91 f1 00 	lds	r24, 0x00F1
 886:	81 93       	st	Z+, r24
 888:	61 50       	subi	r22, 0x01	; 1
 88a:	70 40       	sbci	r23, 0x00	; 0
 88c:	59 f0       	breq	.+22     	; 0x8a4 <Endpoint_Read_Control_Stream_LE+0x58>
 88e:	20 91 f3 00 	lds	r18, 0x00F3
 892:	80 91 f2 00 	lds	r24, 0x00F2
 896:	32 2f       	mov	r19, r18
 898:	20 e0       	ldi	r18, 0x00	; 0
 89a:	90 e0       	ldi	r25, 0x00	; 0
 89c:	82 2b       	or	r24, r18
 89e:	93 2b       	or	r25, r19
 8a0:	89 2b       	or	r24, r25
 8a2:	79 f7       	brne	.-34     	; 0x882 <Endpoint_Read_Control_Stream_LE+0x36>
 8a4:	80 91 e8 00 	lds	r24, 0x00E8
 8a8:	8b 77       	andi	r24, 0x7B	; 123
 8aa:	80 93 e8 00 	sts	0x00E8, r24
 8ae:	61 15       	cp	r22, r1
 8b0:	71 05       	cpc	r23, r1
 8b2:	b9 f6       	brne	.-82     	; 0x862 <Endpoint_Read_Control_Stream_LE+0x16>
 8b4:	05 c0       	rjmp	.+10     	; 0x8c0 <Endpoint_Read_Control_Stream_LE+0x74>
 8b6:	8e b3       	in	r24, 0x1e	; 30
 8b8:	88 23       	and	r24, r24
 8ba:	41 f0       	breq	.+16     	; 0x8cc <Endpoint_Read_Control_Stream_LE+0x80>
 8bc:	85 30       	cpi	r24, 0x05	; 5
 8be:	41 f0       	breq	.+16     	; 0x8d0 <Endpoint_Read_Control_Stream_LE+0x84>
 8c0:	80 91 e8 00 	lds	r24, 0x00E8
 8c4:	80 ff       	sbrs	r24, 0
 8c6:	f7 cf       	rjmp	.-18     	; 0x8b6 <Endpoint_Read_Control_Stream_LE+0x6a>
 8c8:	80 e0       	ldi	r24, 0x00	; 0
 8ca:	08 95       	ret
 8cc:	82 e0       	ldi	r24, 0x02	; 2
 8ce:	08 95       	ret
 8d0:	83 e0       	ldi	r24, 0x03	; 3
 8d2:	08 95       	ret

000008d4 <Endpoint_Write_Control_PStream_LE>:
 8d4:	9c 01       	movw	r18, r24
 8d6:	40 91 36 02 	lds	r20, 0x0236
 8da:	50 91 37 02 	lds	r21, 0x0237
 8de:	46 17       	cp	r20, r22
 8e0:	57 07       	cpc	r21, r23
 8e2:	18 f4       	brcc	.+6      	; 0x8ea <Endpoint_Write_Control_PStream_LE+0x16>
 8e4:	f9 01       	movw	r30, r18
 8e6:	90 e0       	ldi	r25, 0x00	; 0
 8e8:	45 c0       	rjmp	.+138    	; 0x974 <Endpoint_Write_Control_PStream_LE+0xa0>
 8ea:	61 15       	cp	r22, r1
 8ec:	71 05       	cpc	r23, r1
 8ee:	11 f0       	breq	.+4      	; 0x8f4 <Endpoint_Write_Control_PStream_LE+0x20>
 8f0:	ab 01       	movw	r20, r22
 8f2:	f8 cf       	rjmp	.-16     	; 0x8e4 <Endpoint_Write_Control_PStream_LE+0x10>
 8f4:	80 91 e8 00 	lds	r24, 0x00E8
 8f8:	8e 77       	andi	r24, 0x7E	; 126
 8fa:	80 93 e8 00 	sts	0x00E8, r24
 8fe:	40 e0       	ldi	r20, 0x00	; 0
 900:	50 e0       	ldi	r21, 0x00	; 0
 902:	f0 cf       	rjmp	.-32     	; 0x8e4 <Endpoint_Write_Control_PStream_LE+0x10>
 904:	8e b3       	in	r24, 0x1e	; 30
 906:	88 23       	and	r24, r24
 908:	09 f4       	brne	.+2      	; 0x90c <Endpoint_Write_Control_PStream_LE+0x38>
 90a:	46 c0       	rjmp	.+140    	; 0x998 <Endpoint_Write_Control_PStream_LE+0xc4>
 90c:	85 30       	cpi	r24, 0x05	; 5
 90e:	09 f4       	brne	.+2      	; 0x912 <Endpoint_Write_Control_PStream_LE+0x3e>
 910:	45 c0       	rjmp	.+138    	; 0x99c <Endpoint_Write_Control_PStream_LE+0xc8>
 912:	80 91 e8 00 	lds	r24, 0x00E8
 916:	83 ff       	sbrs	r24, 3
 918:	02 c0       	rjmp	.+4      	; 0x91e <Endpoint_Write_Control_PStream_LE+0x4a>
 91a:	81 e0       	ldi	r24, 0x01	; 1
 91c:	08 95       	ret
 91e:	80 91 e8 00 	lds	r24, 0x00E8
 922:	82 fd       	sbrc	r24, 2
 924:	33 c0       	rjmp	.+102    	; 0x98c <Endpoint_Write_Control_PStream_LE+0xb8>
 926:	80 91 e8 00 	lds	r24, 0x00E8
 92a:	80 ff       	sbrs	r24, 0
 92c:	23 c0       	rjmp	.+70     	; 0x974 <Endpoint_Write_Control_PStream_LE+0xa0>
 92e:	80 91 f3 00 	lds	r24, 0x00F3
 932:	90 91 f2 00 	lds	r25, 0x00F2
 936:	78 2f       	mov	r23, r24
 938:	60 e0       	ldi	r22, 0x00	; 0
 93a:	29 2f       	mov	r18, r25
 93c:	30 e0       	ldi	r19, 0x00	; 0
 93e:	26 2b       	or	r18, r22
 940:	37 2b       	or	r19, r23
 942:	08 c0       	rjmp	.+16     	; 0x954 <Endpoint_Write_Control_PStream_LE+0x80>
 944:	84 91       	lpm	r24, Z+
 946:	80 93 f1 00 	sts	0x00F1, r24
 94a:	31 96       	adiw	r30, 0x01	; 1
 94c:	41 50       	subi	r20, 0x01	; 1
 94e:	50 40       	sbci	r21, 0x00	; 0
 950:	2f 5f       	subi	r18, 0xFF	; 255
 952:	3f 4f       	sbci	r19, 0xFF	; 255
 954:	41 15       	cp	r20, r1
 956:	51 05       	cpc	r21, r1
 958:	19 f0       	breq	.+6      	; 0x960 <Endpoint_Write_Control_PStream_LE+0x8c>
 95a:	28 30       	cpi	r18, 0x08	; 8
 95c:	31 05       	cpc	r19, r1
 95e:	90 f3       	brcs	.-28     	; 0x944 <Endpoint_Write_Control_PStream_LE+0x70>
 960:	90 e0       	ldi	r25, 0x00	; 0
 962:	28 30       	cpi	r18, 0x08	; 8
 964:	31 05       	cpc	r19, r1
 966:	09 f4       	brne	.+2      	; 0x96a <Endpoint_Write_Control_PStream_LE+0x96>
 968:	91 e0       	ldi	r25, 0x01	; 1
 96a:	80 91 e8 00 	lds	r24, 0x00E8
 96e:	8e 77       	andi	r24, 0x7E	; 126
 970:	80 93 e8 00 	sts	0x00E8, r24
 974:	41 15       	cp	r20, r1
 976:	51 05       	cpc	r21, r1
 978:	29 f6       	brne	.-118    	; 0x904 <Endpoint_Write_Control_PStream_LE+0x30>
 97a:	99 23       	and	r25, r25
 97c:	09 f0       	breq	.+2      	; 0x980 <Endpoint_Write_Control_PStream_LE+0xac>
 97e:	c2 cf       	rjmp	.-124    	; 0x904 <Endpoint_Write_Control_PStream_LE+0x30>
 980:	05 c0       	rjmp	.+10     	; 0x98c <Endpoint_Write_Control_PStream_LE+0xb8>
 982:	8e b3       	in	r24, 0x1e	; 30
 984:	88 23       	and	r24, r24
 986:	41 f0       	breq	.+16     	; 0x998 <Endpoint_Write_Control_PStream_LE+0xc4>
 988:	85 30       	cpi	r24, 0x05	; 5
 98a:	41 f0       	breq	.+16     	; 0x99c <Endpoint_Write_Control_PStream_LE+0xc8>
 98c:	80 91 e8 00 	lds	r24, 0x00E8
 990:	82 ff       	sbrs	r24, 2
 992:	f7 cf       	rjmp	.-18     	; 0x982 <Endpoint_Write_Control_PStream_LE+0xae>
 994:	80 e0       	ldi	r24, 0x00	; 0
 996:	08 95       	ret
 998:	82 e0       	ldi	r24, 0x02	; 2
 99a:	08 95       	ret
 99c:	83 e0       	ldi	r24, 0x03	; 3
 99e:	08 95       	ret

000009a0 <USB_Device_ProcessControlRequest>:
 9a0:	0f 93       	push	r16
 9a2:	1f 93       	push	r17
 9a4:	df 93       	push	r29
 9a6:	cf 93       	push	r28
 9a8:	cd b7       	in	r28, 0x3d	; 61
 9aa:	de b7       	in	r29, 0x3e	; 62
 9ac:	ac 97       	sbiw	r28, 0x2c	; 44
 9ae:	0f b6       	in	r0, 0x3f	; 63
 9b0:	f8 94       	cli
 9b2:	de bf       	out	0x3e, r29	; 62
 9b4:	0f be       	out	0x3f, r0	; 63
 9b6:	cd bf       	out	0x3d, r28	; 61
 9b8:	80 91 f1 00 	lds	r24, 0x00F1
 9bc:	80 93 30 02 	sts	0x0230, r24
 9c0:	80 91 f1 00 	lds	r24, 0x00F1
 9c4:	80 93 31 02 	sts	0x0231, r24
 9c8:	80 91 f1 00 	lds	r24, 0x00F1
 9cc:	90 91 f1 00 	lds	r25, 0x00F1
 9d0:	e2 e3       	ldi	r30, 0x32	; 50
 9d2:	f2 e0       	ldi	r31, 0x02	; 2
 9d4:	80 93 32 02 	sts	0x0232, r24
 9d8:	90 93 33 02 	sts	0x0233, r25
 9dc:	80 91 f1 00 	lds	r24, 0x00F1
 9e0:	90 91 f1 00 	lds	r25, 0x00F1
 9e4:	80 93 34 02 	sts	0x0234, r24
 9e8:	93 83       	std	Z+3, r25	; 0x03
 9ea:	80 91 f1 00 	lds	r24, 0x00F1
 9ee:	90 91 f1 00 	lds	r25, 0x00F1
 9f2:	80 93 36 02 	sts	0x0236, r24
 9f6:	95 83       	std	Z+5, r25	; 0x05
 9f8:	2c dc       	rcall	.-1960   	; 0x252 <EVENT_USB_Device_ControlRequest>
 9fa:	80 91 e8 00 	lds	r24, 0x00E8
 9fe:	83 ff       	sbrs	r24, 3
 a00:	36 c1       	rjmp	.+620    	; 0xc6e <__stack+0x16f>
 a02:	80 91 30 02 	lds	r24, 0x0230
 a06:	30 91 31 02 	lds	r19, 0x0231
 a0a:	35 30       	cpi	r19, 0x05	; 5
 a0c:	09 f4       	brne	.+2      	; 0xa10 <USB_Device_ProcessControlRequest+0x70>
 a0e:	87 c0       	rjmp	.+270    	; 0xb1e <__stack+0x1f>
 a10:	36 30       	cpi	r19, 0x06	; 6
 a12:	40 f4       	brcc	.+16     	; 0xa24 <USB_Device_ProcessControlRequest+0x84>
 a14:	31 30       	cpi	r19, 0x01	; 1
 a16:	c9 f1       	breq	.+114    	; 0xa8a <USB_Device_ProcessControlRequest+0xea>
 a18:	31 30       	cpi	r19, 0x01	; 1
 a1a:	70 f0       	brcs	.+28     	; 0xa38 <USB_Device_ProcessControlRequest+0x98>
 a1c:	33 30       	cpi	r19, 0x03	; 3
 a1e:	09 f0       	breq	.+2      	; 0xa22 <USB_Device_ProcessControlRequest+0x82>
 a20:	26 c1       	rjmp	.+588    	; 0xc6e <__stack+0x16f>
 a22:	33 c0       	rjmp	.+102    	; 0xa8a <USB_Device_ProcessControlRequest+0xea>
 a24:	38 30       	cpi	r19, 0x08	; 8
 a26:	09 f4       	brne	.+2      	; 0xa2a <USB_Device_ProcessControlRequest+0x8a>
 a28:	f5 c0       	rjmp	.+490    	; 0xc14 <__stack+0x115>
 a2a:	39 30       	cpi	r19, 0x09	; 9
 a2c:	09 f4       	brne	.+2      	; 0xa30 <USB_Device_ProcessControlRequest+0x90>
 a2e:	04 c1       	rjmp	.+520    	; 0xc38 <__stack+0x139>
 a30:	36 30       	cpi	r19, 0x06	; 6
 a32:	09 f0       	breq	.+2      	; 0xa36 <USB_Device_ProcessControlRequest+0x96>
 a34:	1c c1       	rjmp	.+568    	; 0xc6e <__stack+0x16f>
 a36:	96 c0       	rjmp	.+300    	; 0xb64 <__stack+0x65>
 a38:	80 38       	cpi	r24, 0x80	; 128
 a3a:	21 f0       	breq	.+8      	; 0xa44 <USB_Device_ProcessControlRequest+0xa4>
 a3c:	82 38       	cpi	r24, 0x82	; 130
 a3e:	09 f0       	breq	.+2      	; 0xa42 <USB_Device_ProcessControlRequest+0xa2>
 a40:	16 c1       	rjmp	.+556    	; 0xc6e <__stack+0x16f>
 a42:	08 c0       	rjmp	.+16     	; 0xa54 <USB_Device_ProcessControlRequest+0xb4>
 a44:	90 91 2d 02 	lds	r25, 0x022D
 a48:	80 91 2e 02 	lds	r24, 0x022E
 a4c:	88 23       	and	r24, r24
 a4e:	99 f0       	breq	.+38     	; 0xa76 <USB_Device_ProcessControlRequest+0xd6>
 a50:	92 60       	ori	r25, 0x02	; 2
 a52:	11 c0       	rjmp	.+34     	; 0xa76 <USB_Device_ProcessControlRequest+0xd6>
 a54:	80 91 34 02 	lds	r24, 0x0234
 a58:	87 70       	andi	r24, 0x07	; 7
 a5a:	80 93 e9 00 	sts	0x00E9, r24
 a5e:	80 91 eb 00 	lds	r24, 0x00EB
 a62:	90 e0       	ldi	r25, 0x00	; 0
 a64:	25 e0       	ldi	r18, 0x05	; 5
 a66:	96 95       	lsr	r25
 a68:	87 95       	ror	r24
 a6a:	2a 95       	dec	r18
 a6c:	e1 f7       	brne	.-8      	; 0xa66 <USB_Device_ProcessControlRequest+0xc6>
 a6e:	98 2f       	mov	r25, r24
 a70:	91 70       	andi	r25, 0x01	; 1
 a72:	10 92 e9 00 	sts	0x00E9, r1
 a76:	80 91 e8 00 	lds	r24, 0x00E8
 a7a:	87 7f       	andi	r24, 0xF7	; 247
 a7c:	80 93 e8 00 	sts	0x00E8, r24
 a80:	90 93 f1 00 	sts	0x00F1, r25
 a84:	10 92 f1 00 	sts	0x00F1, r1
 a88:	d0 c0       	rjmp	.+416    	; 0xc2a <__stack+0x12b>
 a8a:	88 23       	and	r24, r24
 a8c:	19 f0       	breq	.+6      	; 0xa94 <USB_Device_ProcessControlRequest+0xf4>
 a8e:	82 30       	cpi	r24, 0x02	; 2
 a90:	09 f0       	breq	.+2      	; 0xa94 <USB_Device_ProcessControlRequest+0xf4>
 a92:	ed c0       	rjmp	.+474    	; 0xc6e <__stack+0x16f>
 a94:	90 e0       	ldi	r25, 0x00	; 0
 a96:	8f 71       	andi	r24, 0x1F	; 31
 a98:	90 70       	andi	r25, 0x00	; 0
 a9a:	00 97       	sbiw	r24, 0x00	; 0
 a9c:	21 f0       	breq	.+8      	; 0xaa6 <USB_Device_ProcessControlRequest+0x106>
 a9e:	02 97       	sbiw	r24, 0x02	; 2
 aa0:	09 f0       	breq	.+2      	; 0xaa4 <USB_Device_ProcessControlRequest+0x104>
 aa2:	e5 c0       	rjmp	.+458    	; 0xc6e <__stack+0x16f>
 aa4:	0c c0       	rjmp	.+24     	; 0xabe <USB_Device_ProcessControlRequest+0x11e>
 aa6:	80 91 32 02 	lds	r24, 0x0232
 aaa:	81 30       	cpi	r24, 0x01	; 1
 aac:	09 f0       	breq	.+2      	; 0xab0 <USB_Device_ProcessControlRequest+0x110>
 aae:	df c0       	rjmp	.+446    	; 0xc6e <__stack+0x16f>
 ab0:	10 92 2e 02 	sts	0x022E, r1
 ab4:	33 30       	cpi	r19, 0x03	; 3
 ab6:	69 f5       	brne	.+90     	; 0xb12 <__stack+0x13>
 ab8:	80 93 2e 02 	sts	0x022E, r24
 abc:	2a c0       	rjmp	.+84     	; 0xb12 <__stack+0x13>
 abe:	80 91 32 02 	lds	r24, 0x0232
 ac2:	88 23       	and	r24, r24
 ac4:	31 f5       	brne	.+76     	; 0xb12 <__stack+0x13>
 ac6:	20 91 34 02 	lds	r18, 0x0234
 aca:	27 70       	andi	r18, 0x07	; 7
 acc:	09 f4       	brne	.+2      	; 0xad0 <USB_Device_ProcessControlRequest+0x130>
 ace:	cf c0       	rjmp	.+414    	; 0xc6e <__stack+0x16f>
 ad0:	20 93 e9 00 	sts	0x00E9, r18
 ad4:	80 91 eb 00 	lds	r24, 0x00EB
 ad8:	80 ff       	sbrs	r24, 0
 ada:	1b c0       	rjmp	.+54     	; 0xb12 <__stack+0x13>
 adc:	33 30       	cpi	r19, 0x03	; 3
 ade:	21 f4       	brne	.+8      	; 0xae8 <USB_Device_ProcessControlRequest+0x148>
 ae0:	80 91 eb 00 	lds	r24, 0x00EB
 ae4:	80 62       	ori	r24, 0x20	; 32
 ae6:	13 c0       	rjmp	.+38     	; 0xb0e <__stack+0xf>
 ae8:	80 91 eb 00 	lds	r24, 0x00EB
 aec:	80 61       	ori	r24, 0x10	; 16
 aee:	80 93 eb 00 	sts	0x00EB, r24
 af2:	81 e0       	ldi	r24, 0x01	; 1
 af4:	90 e0       	ldi	r25, 0x00	; 0
 af6:	02 c0       	rjmp	.+4      	; 0xafc <USB_Device_ProcessControlRequest+0x15c>
 af8:	88 0f       	add	r24, r24
 afa:	99 1f       	adc	r25, r25
 afc:	2a 95       	dec	r18
 afe:	e2 f7       	brpl	.-8      	; 0xaf8 <USB_Device_ProcessControlRequest+0x158>
 b00:	80 93 ea 00 	sts	0x00EA, r24
 b04:	10 92 ea 00 	sts	0x00EA, r1
 b08:	80 91 eb 00 	lds	r24, 0x00EB
 b0c:	88 60       	ori	r24, 0x08	; 8
 b0e:	80 93 eb 00 	sts	0x00EB, r24
 b12:	10 92 e9 00 	sts	0x00E9, r1
 b16:	80 91 e8 00 	lds	r24, 0x00E8
 b1a:	87 7f       	andi	r24, 0xF7	; 247
 b1c:	89 c0       	rjmp	.+274    	; 0xc30 <__stack+0x131>
 b1e:	88 23       	and	r24, r24
 b20:	09 f0       	breq	.+2      	; 0xb24 <__stack+0x25>
 b22:	a5 c0       	rjmp	.+330    	; 0xc6e <__stack+0x16f>
 b24:	10 91 32 02 	lds	r17, 0x0232
 b28:	1f 77       	andi	r17, 0x7F	; 127
 b2a:	0f b7       	in	r16, 0x3f	; 63
 b2c:	f8 94       	cli
 b2e:	80 91 e8 00 	lds	r24, 0x00E8
 b32:	87 7f       	andi	r24, 0xF7	; 247
 b34:	80 93 e8 00 	sts	0x00E8, r24
 b38:	7c dc       	rcall	.-1800   	; 0x432 <Endpoint_ClearStatusStage>
 b3a:	80 91 e8 00 	lds	r24, 0x00E8
 b3e:	80 ff       	sbrs	r24, 0
 b40:	fc cf       	rjmp	.-8      	; 0xb3a <__stack+0x3b>
 b42:	80 91 e3 00 	lds	r24, 0x00E3
 b46:	80 78       	andi	r24, 0x80	; 128
 b48:	81 2b       	or	r24, r17
 b4a:	80 93 e3 00 	sts	0x00E3, r24
 b4e:	80 68       	ori	r24, 0x80	; 128
 b50:	80 93 e3 00 	sts	0x00E3, r24
 b54:	11 23       	and	r17, r17
 b56:	11 f4       	brne	.+4      	; 0xb5c <__stack+0x5d>
 b58:	82 e0       	ldi	r24, 0x02	; 2
 b5a:	01 c0       	rjmp	.+2      	; 0xb5e <__stack+0x5f>
 b5c:	83 e0       	ldi	r24, 0x03	; 3
 b5e:	8e bb       	out	0x1e, r24	; 30
 b60:	0f bf       	out	0x3f, r16	; 63
 b62:	85 c0       	rjmp	.+266    	; 0xc6e <__stack+0x16f>
 b64:	80 58       	subi	r24, 0x80	; 128
 b66:	82 30       	cpi	r24, 0x02	; 2
 b68:	08 f0       	brcs	.+2      	; 0xb6c <__stack+0x6d>
 b6a:	81 c0       	rjmp	.+258    	; 0xc6e <__stack+0x16f>
 b6c:	80 91 32 02 	lds	r24, 0x0232
 b70:	90 91 33 02 	lds	r25, 0x0233
 b74:	23 e0       	ldi	r18, 0x03	; 3
 b76:	8c 3d       	cpi	r24, 0xDC	; 220
 b78:	92 07       	cpc	r25, r18
 b7a:	09 f0       	breq	.+2      	; 0xb7e <__stack+0x7f>
 b7c:	33 c0       	rjmp	.+102    	; 0xbe4 <__stack+0xe5>
 b7e:	83 e0       	ldi	r24, 0x03	; 3
 b80:	8c 83       	std	Y+4, r24	; 0x04
 b82:	8a e2       	ldi	r24, 0x2A	; 42
 b84:	8b 83       	std	Y+3, r24	; 0x03
 b86:	7f b7       	in	r23, 0x3f	; 63
 b88:	f8 94       	cli
 b8a:	de 01       	movw	r26, r28
 b8c:	15 96       	adiw	r26, 0x05	; 5
 b8e:	6e e0       	ldi	r22, 0x0E	; 14
 b90:	40 e0       	ldi	r20, 0x00	; 0
 b92:	50 e0       	ldi	r21, 0x00	; 0
 b94:	11 e2       	ldi	r17, 0x21	; 33
 b96:	e6 2f       	mov	r30, r22
 b98:	f0 e0       	ldi	r31, 0x00	; 0
 b9a:	10 93 57 00 	sts	0x0057, r17
 b9e:	84 91       	lpm	r24, Z+
 ba0:	40 ff       	sbrs	r20, 0
 ba2:	03 c0       	rjmp	.+6      	; 0xbaa <__stack+0xab>
 ba4:	82 95       	swap	r24
 ba6:	8f 70       	andi	r24, 0x0F	; 15
 ba8:	6f 5f       	subi	r22, 0xFF	; 255
 baa:	8f 70       	andi	r24, 0x0F	; 15
 bac:	28 2f       	mov	r18, r24
 bae:	30 e0       	ldi	r19, 0x00	; 0
 bb0:	8a 30       	cpi	r24, 0x0A	; 10
 bb2:	18 f0       	brcs	.+6      	; 0xbba <__stack+0xbb>
 bb4:	c9 01       	movw	r24, r18
 bb6:	c7 96       	adiw	r24, 0x37	; 55
 bb8:	02 c0       	rjmp	.+4      	; 0xbbe <__stack+0xbf>
 bba:	c9 01       	movw	r24, r18
 bbc:	c0 96       	adiw	r24, 0x30	; 48
 bbe:	8d 93       	st	X+, r24
 bc0:	9d 93       	st	X+, r25
 bc2:	4f 5f       	subi	r20, 0xFF	; 255
 bc4:	5f 4f       	sbci	r21, 0xFF	; 255
 bc6:	44 31       	cpi	r20, 0x14	; 20
 bc8:	51 05       	cpc	r21, r1
 bca:	29 f7       	brne	.-54     	; 0xb96 <__stack+0x97>
 bcc:	7f bf       	out	0x3f, r23	; 63
 bce:	80 91 e8 00 	lds	r24, 0x00E8
 bd2:	87 7f       	andi	r24, 0xF7	; 247
 bd4:	80 93 e8 00 	sts	0x00E8, r24
 bd8:	ce 01       	movw	r24, r28
 bda:	03 96       	adiw	r24, 0x03	; 3
 bdc:	6a e2       	ldi	r22, 0x2A	; 42
 bde:	70 e0       	ldi	r23, 0x00	; 0
 be0:	d1 dd       	rcall	.-1118   	; 0x784 <Endpoint_Write_Control_Stream_LE>
 be2:	12 c0       	rjmp	.+36     	; 0xc08 <__stack+0x109>
 be4:	60 91 34 02 	lds	r22, 0x0234
 be8:	ae 01       	movw	r20, r28
 bea:	4f 5f       	subi	r20, 0xFF	; 255
 bec:	5f 4f       	sbci	r21, 0xFF	; 255
 bee:	e0 db       	rcall	.-2112   	; 0x3b0 <CALLBACK_USB_GetDescriptor>
 bf0:	bc 01       	movw	r22, r24
 bf2:	00 97       	sbiw	r24, 0x00	; 0
 bf4:	09 f4       	brne	.+2      	; 0xbf8 <__stack+0xf9>
 bf6:	3b c0       	rjmp	.+118    	; 0xc6e <__stack+0x16f>
 bf8:	80 91 e8 00 	lds	r24, 0x00E8
 bfc:	87 7f       	andi	r24, 0xF7	; 247
 bfe:	80 93 e8 00 	sts	0x00E8, r24
 c02:	89 81       	ldd	r24, Y+1	; 0x01
 c04:	9a 81       	ldd	r25, Y+2	; 0x02
 c06:	66 de       	rcall	.-820    	; 0x8d4 <Endpoint_Write_Control_PStream_LE>
 c08:	80 91 e8 00 	lds	r24, 0x00E8
 c0c:	8b 77       	andi	r24, 0x7B	; 123
 c0e:	80 93 e8 00 	sts	0x00E8, r24
 c12:	2d c0       	rjmp	.+90     	; 0xc6e <__stack+0x16f>
 c14:	80 38       	cpi	r24, 0x80	; 128
 c16:	59 f5       	brne	.+86     	; 0xc6e <__stack+0x16f>
 c18:	80 91 e8 00 	lds	r24, 0x00E8
 c1c:	87 7f       	andi	r24, 0xF7	; 247
 c1e:	80 93 e8 00 	sts	0x00E8, r24
 c22:	80 91 2c 02 	lds	r24, 0x022C
 c26:	80 93 f1 00 	sts	0x00F1, r24
 c2a:	80 91 e8 00 	lds	r24, 0x00E8
 c2e:	8e 77       	andi	r24, 0x7E	; 126
 c30:	80 93 e8 00 	sts	0x00E8, r24
 c34:	fe db       	rcall	.-2052   	; 0x432 <Endpoint_ClearStatusStage>
 c36:	1b c0       	rjmp	.+54     	; 0xc6e <__stack+0x16f>
 c38:	88 23       	and	r24, r24
 c3a:	c9 f4       	brne	.+50     	; 0xc6e <__stack+0x16f>
 c3c:	90 91 32 02 	lds	r25, 0x0232
 c40:	92 30       	cpi	r25, 0x02	; 2
 c42:	a8 f4       	brcc	.+42     	; 0xc6e <__stack+0x16f>
 c44:	80 91 e8 00 	lds	r24, 0x00E8
 c48:	87 7f       	andi	r24, 0xF7	; 247
 c4a:	80 93 e8 00 	sts	0x00E8, r24
 c4e:	90 93 2c 02 	sts	0x022C, r25
 c52:	ef db       	rcall	.-2082   	; 0x432 <Endpoint_ClearStatusStage>
 c54:	80 91 2c 02 	lds	r24, 0x022C
 c58:	88 23       	and	r24, r24
 c5a:	31 f4       	brne	.+12     	; 0xc68 <__stack+0x169>
 c5c:	80 91 e3 00 	lds	r24, 0x00E3
 c60:	87 fd       	sbrc	r24, 7
 c62:	02 c0       	rjmp	.+4      	; 0xc68 <__stack+0x169>
 c64:	81 e0       	ldi	r24, 0x01	; 1
 c66:	01 c0       	rjmp	.+2      	; 0xc6a <__stack+0x16b>
 c68:	84 e0       	ldi	r24, 0x04	; 4
 c6a:	8e bb       	out	0x1e, r24	; 30
 c6c:	f5 da       	rcall	.-2582   	; 0x258 <EVENT_USB_Device_ConfigurationChanged>
 c6e:	80 91 e8 00 	lds	r24, 0x00E8
 c72:	83 ff       	sbrs	r24, 3
 c74:	0a c0       	rjmp	.+20     	; 0xc8a <__stack+0x18b>
 c76:	80 91 eb 00 	lds	r24, 0x00EB
 c7a:	80 62       	ori	r24, 0x20	; 32
 c7c:	80 93 eb 00 	sts	0x00EB, r24
 c80:	80 91 e8 00 	lds	r24, 0x00E8
 c84:	87 7f       	andi	r24, 0xF7	; 247
 c86:	80 93 e8 00 	sts	0x00E8, r24
 c8a:	ac 96       	adiw	r28, 0x2c	; 44
 c8c:	0f b6       	in	r0, 0x3f	; 63
 c8e:	f8 94       	cli
 c90:	de bf       	out	0x3e, r29	; 62
 c92:	0f be       	out	0x3f, r0	; 63
 c94:	cd bf       	out	0x3d, r28	; 61
 c96:	cf 91       	pop	r28
 c98:	df 91       	pop	r29
 c9a:	1f 91       	pop	r17
 c9c:	0f 91       	pop	r16
 c9e:	08 95       	ret

00000ca0 <USB_Event_Stub>:
#include "Events.h"

void USB_Event_Stub(void)
{

}
 ca0:	08 95       	ret

00000ca2 <USB_USBTask>:
 ca2:	1f 93       	push	r17
 ca4:	8e b3       	in	r24, 0x1e	; 30
 ca6:	88 23       	and	r24, r24
 ca8:	61 f0       	breq	.+24     	; 0xcc2 <USB_USBTask+0x20>
 caa:	10 91 e9 00 	lds	r17, 0x00E9
 cae:	10 92 e9 00 	sts	0x00E9, r1
 cb2:	80 91 e8 00 	lds	r24, 0x00E8
 cb6:	83 ff       	sbrs	r24, 3
 cb8:	01 c0       	rjmp	.+2      	; 0xcbc <USB_USBTask+0x1a>
 cba:	72 de       	rcall	.-796    	; 0x9a0 <USB_Device_ProcessControlRequest>
 cbc:	17 70       	andi	r17, 0x07	; 7
 cbe:	10 93 e9 00 	sts	0x00E9, r17
 cc2:	1f 91       	pop	r17
 cc4:	08 95       	ret

00000cc6 <CDC_Device_ReceiveByte>:
 cc6:	fc 01       	movw	r30, r24
 cc8:	8e b3       	in	r24, 0x1e	; 30
 cca:	84 30       	cpi	r24, 0x04	; 4
 ccc:	91 f5       	brne	.+100    	; 0xd32 <CDC_Device_ReceiveByte+0x6c>
 cce:	87 85       	ldd	r24, Z+15	; 0x0f
 cd0:	90 89       	ldd	r25, Z+16	; 0x10
 cd2:	a1 89       	ldd	r26, Z+17	; 0x11
 cd4:	b2 89       	ldd	r27, Z+18	; 0x12
 cd6:	00 97       	sbiw	r24, 0x00	; 0
 cd8:	a1 05       	cpc	r26, r1
 cda:	b1 05       	cpc	r27, r1
 cdc:	51 f1       	breq	.+84     	; 0xd32 <CDC_Device_ReceiveByte+0x6c>
 cde:	85 81       	ldd	r24, Z+5	; 0x05
 ce0:	80 93 e9 00 	sts	0x00E9, r24
 ce4:	80 91 e8 00 	lds	r24, 0x00E8
 ce8:	82 ff       	sbrs	r24, 2
 cea:	23 c0       	rjmp	.+70     	; 0xd32 <CDC_Device_ReceiveByte+0x6c>
 cec:	40 91 f3 00 	lds	r20, 0x00F3
 cf0:	20 91 f2 00 	lds	r18, 0x00F2
 cf4:	94 2f       	mov	r25, r20
 cf6:	80 e0       	ldi	r24, 0x00	; 0
 cf8:	30 e0       	ldi	r19, 0x00	; 0
 cfa:	82 2b       	or	r24, r18
 cfc:	93 2b       	or	r25, r19
 cfe:	89 2b       	or	r24, r25
 d00:	19 f4       	brne	.+6      	; 0xd08 <CDC_Device_ReceiveByte+0x42>
 d02:	6f ef       	ldi	r22, 0xFF	; 255
 d04:	7f ef       	ldi	r23, 0xFF	; 255
 d06:	04 c0       	rjmp	.+8      	; 0xd10 <CDC_Device_ReceiveByte+0x4a>
 d08:	80 91 f1 00 	lds	r24, 0x00F1
 d0c:	68 2f       	mov	r22, r24
 d0e:	70 e0       	ldi	r23, 0x00	; 0
 d10:	40 91 f3 00 	lds	r20, 0x00F3
 d14:	20 91 f2 00 	lds	r18, 0x00F2
 d18:	94 2f       	mov	r25, r20
 d1a:	80 e0       	ldi	r24, 0x00	; 0
 d1c:	30 e0       	ldi	r19, 0x00	; 0
 d1e:	82 2b       	or	r24, r18
 d20:	93 2b       	or	r25, r19
 d22:	89 2b       	or	r24, r25
 d24:	41 f4       	brne	.+16     	; 0xd36 <CDC_Device_ReceiveByte+0x70>
 d26:	80 91 e8 00 	lds	r24, 0x00E8
 d2a:	8b 77       	andi	r24, 0x7B	; 123
 d2c:	80 93 e8 00 	sts	0x00E8, r24
 d30:	02 c0       	rjmp	.+4      	; 0xd36 <CDC_Device_ReceiveByte+0x70>
 d32:	6f ef       	ldi	r22, 0xFF	; 255
 d34:	7f ef       	ldi	r23, 0xFF	; 255
 d36:	cb 01       	movw	r24, r22
 d38:	08 95       	ret

00000d3a <CDC_Device_Event_Stub>:
 d3a:	08 95       	ret

00000d3c <CDC_Device_Flush>:
 d3c:	fc 01       	movw	r30, r24
 d3e:	8e b3       	in	r24, 0x1e	; 30
 d40:	84 30       	cpi	r24, 0x04	; 4
 d42:	49 f5       	brne	.+82     	; 0xd96 <CDC_Device_Flush+0x5a>
 d44:	87 85       	ldd	r24, Z+15	; 0x0f
 d46:	90 89       	ldd	r25, Z+16	; 0x10
 d48:	a1 89       	ldd	r26, Z+17	; 0x11
 d4a:	b2 89       	ldd	r27, Z+18	; 0x12
 d4c:	00 97       	sbiw	r24, 0x00	; 0
 d4e:	a1 05       	cpc	r26, r1
 d50:	b1 05       	cpc	r27, r1
 d52:	09 f1       	breq	.+66     	; 0xd96 <CDC_Device_Flush+0x5a>
 d54:	81 81       	ldd	r24, Z+1	; 0x01
 d56:	80 93 e9 00 	sts	0x00E9, r24
 d5a:	40 91 f3 00 	lds	r20, 0x00F3
 d5e:	20 91 f2 00 	lds	r18, 0x00F2
 d62:	94 2f       	mov	r25, r20
 d64:	80 e0       	ldi	r24, 0x00	; 0
 d66:	30 e0       	ldi	r19, 0x00	; 0
 d68:	82 2b       	or	r24, r18
 d6a:	93 2b       	or	r25, r19
 d6c:	89 2b       	or	r24, r25
 d6e:	a9 f0       	breq	.+42     	; 0xd9a <CDC_Device_Flush+0x5e>
 d70:	90 91 e8 00 	lds	r25, 0x00E8
 d74:	80 91 e8 00 	lds	r24, 0x00E8
 d78:	8e 77       	andi	r24, 0x7E	; 126
 d7a:	80 93 e8 00 	sts	0x00E8, r24
 d7e:	95 fd       	sbrc	r25, 5
 d80:	0c c0       	rjmp	.+24     	; 0xd9a <CDC_Device_Flush+0x5e>
 d82:	76 db       	rcall	.-2324   	; 0x470 <Endpoint_WaitUntilReady>
 d84:	98 2f       	mov	r25, r24
 d86:	88 23       	and	r24, r24
 d88:	49 f4       	brne	.+18     	; 0xd9c <CDC_Device_Flush+0x60>
 d8a:	80 91 e8 00 	lds	r24, 0x00E8
 d8e:	8e 77       	andi	r24, 0x7E	; 126
 d90:	80 93 e8 00 	sts	0x00E8, r24
 d94:	03 c0       	rjmp	.+6      	; 0xd9c <CDC_Device_Flush+0x60>
 d96:	92 e0       	ldi	r25, 0x02	; 2
 d98:	01 c0       	rjmp	.+2      	; 0xd9c <CDC_Device_Flush+0x60>
 d9a:	90 e0       	ldi	r25, 0x00	; 0
 d9c:	89 2f       	mov	r24, r25
 d9e:	08 95       	ret

00000da0 <CDC_Device_USBTask>:
 da0:	fc 01       	movw	r30, r24
 da2:	8e b3       	in	r24, 0x1e	; 30
 da4:	84 30       	cpi	r24, 0x04	; 4
 da6:	51 f4       	brne	.+20     	; 0xdbc <CDC_Device_USBTask+0x1c>
 da8:	87 85       	ldd	r24, Z+15	; 0x0f
 daa:	90 89       	ldd	r25, Z+16	; 0x10
 dac:	a1 89       	ldd	r26, Z+17	; 0x11
 dae:	b2 89       	ldd	r27, Z+18	; 0x12
 db0:	00 97       	sbiw	r24, 0x00	; 0
 db2:	a1 05       	cpc	r26, r1
 db4:	b1 05       	cpc	r27, r1
 db6:	11 f0       	breq	.+4      	; 0xdbc <CDC_Device_USBTask+0x1c>
 db8:	cf 01       	movw	r24, r30
 dba:	c0 cf       	rjmp	.-128    	; 0xd3c <CDC_Device_Flush>
 dbc:	08 95       	ret

00000dbe <CDC_Device_SendByte>:
 dbe:	1f 93       	push	r17
 dc0:	fc 01       	movw	r30, r24
 dc2:	16 2f       	mov	r17, r22
 dc4:	8e b3       	in	r24, 0x1e	; 30
 dc6:	84 30       	cpi	r24, 0x04	; 4
 dc8:	d9 f4       	brne	.+54     	; 0xe00 <CDC_Device_SendByte+0x42>
 dca:	87 85       	ldd	r24, Z+15	; 0x0f
 dcc:	90 89       	ldd	r25, Z+16	; 0x10
 dce:	a1 89       	ldd	r26, Z+17	; 0x11
 dd0:	b2 89       	ldd	r27, Z+18	; 0x12
 dd2:	00 97       	sbiw	r24, 0x00	; 0
 dd4:	a1 05       	cpc	r26, r1
 dd6:	b1 05       	cpc	r27, r1
 dd8:	99 f0       	breq	.+38     	; 0xe00 <CDC_Device_SendByte+0x42>
 dda:	81 81       	ldd	r24, Z+1	; 0x01
 ddc:	80 93 e9 00 	sts	0x00E9, r24
 de0:	80 91 e8 00 	lds	r24, 0x00E8
 de4:	85 fd       	sbrc	r24, 5
 de6:	08 c0       	rjmp	.+16     	; 0xdf8 <CDC_Device_SendByte+0x3a>
 de8:	80 91 e8 00 	lds	r24, 0x00E8
 dec:	8e 77       	andi	r24, 0x7E	; 126
 dee:	80 93 e8 00 	sts	0x00E8, r24
 df2:	3e db       	rcall	.-2436   	; 0x470 <Endpoint_WaitUntilReady>
 df4:	88 23       	and	r24, r24
 df6:	29 f4       	brne	.+10     	; 0xe02 <CDC_Device_SendByte+0x44>
 df8:	10 93 f1 00 	sts	0x00F1, r17
 dfc:	80 e0       	ldi	r24, 0x00	; 0
 dfe:	01 c0       	rjmp	.+2      	; 0xe02 <CDC_Device_SendByte+0x44>
 e00:	82 e0       	ldi	r24, 0x02	; 2
 e02:	1f 91       	pop	r17
 e04:	08 95       	ret

00000e06 <CDC_Device_ConfigureEndpoints>:
 e06:	1f 93       	push	r17
 e08:	cf 93       	push	r28
 e0a:	df 93       	push	r29
 e0c:	ec 01       	movw	r28, r24
 e0e:	0d 96       	adiw	r24, 0x0d	; 13
 e10:	fc 01       	movw	r30, r24
 e12:	89 e0       	ldi	r24, 0x09	; 9
 e14:	df 01       	movw	r26, r30
 e16:	1d 92       	st	X+, r1
 e18:	8a 95       	dec	r24
 e1a:	e9 f7       	brne	.-6      	; 0xe16 <CDC_Device_ConfigureEndpoints+0x10>
 e1c:	11 e0       	ldi	r17, 0x01	; 1
 e1e:	89 81       	ldd	r24, Y+1	; 0x01
 e20:	18 17       	cp	r17, r24
 e22:	29 f4       	brne	.+10     	; 0xe2e <CDC_Device_ConfigureEndpoints+0x28>
 e24:	6a 81       	ldd	r22, Y+2	; 0x02
 e26:	7b 81       	ldd	r23, Y+3	; 0x03
 e28:	8c 81       	ldd	r24, Y+4	; 0x04
 e2a:	52 e0       	ldi	r21, 0x02	; 2
 e2c:	10 c0       	rjmp	.+32     	; 0xe4e <CDC_Device_ConfigureEndpoints+0x48>
 e2e:	8d 81       	ldd	r24, Y+5	; 0x05
 e30:	18 17       	cp	r17, r24
 e32:	31 f4       	brne	.+12     	; 0xe40 <CDC_Device_ConfigureEndpoints+0x3a>
 e34:	6e 81       	ldd	r22, Y+6	; 0x06
 e36:	7f 81       	ldd	r23, Y+7	; 0x07
 e38:	88 85       	ldd	r24, Y+8	; 0x08
 e3a:	52 e0       	ldi	r21, 0x02	; 2
 e3c:	30 e0       	ldi	r19, 0x00	; 0
 e3e:	08 c0       	rjmp	.+16     	; 0xe50 <CDC_Device_ConfigureEndpoints+0x4a>
 e40:	89 85       	ldd	r24, Y+9	; 0x09
 e42:	18 17       	cp	r17, r24
 e44:	39 f5       	brne	.+78     	; 0xe94 <CDC_Device_ConfigureEndpoints+0x8e>
 e46:	6a 85       	ldd	r22, Y+10	; 0x0a
 e48:	7b 85       	ldd	r23, Y+11	; 0x0b
 e4a:	8c 85       	ldd	r24, Y+12	; 0x0c
 e4c:	53 e0       	ldi	r21, 0x03	; 3
 e4e:	30 e8       	ldi	r19, 0x80	; 128
 e50:	88 23       	and	r24, r24
 e52:	11 f4       	brne	.+4      	; 0xe58 <CDC_Device_ConfigureEndpoints+0x52>
 e54:	40 e0       	ldi	r20, 0x00	; 0
 e56:	01 c0       	rjmp	.+2      	; 0xe5a <CDC_Device_ConfigureEndpoints+0x54>
 e58:	44 e0       	ldi	r20, 0x04	; 4
 e5a:	20 e0       	ldi	r18, 0x00	; 0
 e5c:	88 e0       	ldi	r24, 0x08	; 8
 e5e:	90 e0       	ldi	r25, 0x00	; 0
 e60:	03 c0       	rjmp	.+6      	; 0xe68 <CDC_Device_ConfigureEndpoints+0x62>
 e62:	2f 5f       	subi	r18, 0xFF	; 255
 e64:	88 0f       	add	r24, r24
 e66:	99 1f       	adc	r25, r25
 e68:	86 17       	cp	r24, r22
 e6a:	97 07       	cpc	r25, r23
 e6c:	d0 f3       	brcs	.-12     	; 0xe62 <CDC_Device_ConfigureEndpoints+0x5c>
 e6e:	85 2f       	mov	r24, r21
 e70:	90 e0       	ldi	r25, 0x00	; 0
 e72:	56 e0       	ldi	r21, 0x06	; 6
 e74:	88 0f       	add	r24, r24
 e76:	99 1f       	adc	r25, r25
 e78:	5a 95       	dec	r21
 e7a:	e1 f7       	brne	.-8      	; 0xe74 <CDC_Device_ConfigureEndpoints+0x6e>
 e7c:	60 e0       	ldi	r22, 0x00	; 0
 e7e:	31 11       	cpse	r19, r1
 e80:	61 e0       	ldi	r22, 0x01	; 1
 e82:	68 2b       	or	r22, r24
 e84:	42 60       	ori	r20, 0x02	; 2
 e86:	22 95       	swap	r18
 e88:	20 7f       	andi	r18, 0xF0	; 240
 e8a:	42 2b       	or	r20, r18
 e8c:	81 2f       	mov	r24, r17
 e8e:	be da       	rcall	.-2692   	; 0x40c <Endpoint_ConfigureEndpoint_Prv>
 e90:	88 23       	and	r24, r24
 e92:	29 f0       	breq	.+10     	; 0xe9e <CDC_Device_ConfigureEndpoints+0x98>
 e94:	1f 5f       	subi	r17, 0xFF	; 255
 e96:	17 30       	cpi	r17, 0x07	; 7
 e98:	09 f0       	breq	.+2      	; 0xe9c <CDC_Device_ConfigureEndpoints+0x96>
 e9a:	c1 cf       	rjmp	.-126    	; 0xe1e <CDC_Device_ConfigureEndpoints+0x18>
 e9c:	81 e0       	ldi	r24, 0x01	; 1
 e9e:	df 91       	pop	r29
 ea0:	cf 91       	pop	r28
 ea2:	1f 91       	pop	r17
 ea4:	08 95       	ret

00000ea6 <CDC_Device_ProcessControlRequest>:
 ea6:	cf 93       	push	r28
 ea8:	df 93       	push	r29
 eaa:	ec 01       	movw	r28, r24
 eac:	80 91 e8 00 	lds	r24, 0x00E8
 eb0:	83 ff       	sbrs	r24, 3
 eb2:	63 c0       	rjmp	.+198    	; 0xf7a <CDC_Device_ProcessControlRequest+0xd4>
 eb4:	88 81       	ld	r24, Y
 eb6:	90 e0       	ldi	r25, 0x00	; 0
 eb8:	20 91 34 02 	lds	r18, 0x0234
 ebc:	30 91 35 02 	lds	r19, 0x0235
 ec0:	28 17       	cp	r18, r24
 ec2:	39 07       	cpc	r19, r25
 ec4:	09 f0       	breq	.+2      	; 0xec8 <CDC_Device_ProcessControlRequest+0x22>
 ec6:	59 c0       	rjmp	.+178    	; 0xf7a <CDC_Device_ProcessControlRequest+0xd4>
 ec8:	80 91 31 02 	lds	r24, 0x0231
 ecc:	81 32       	cpi	r24, 0x21	; 33
 ece:	61 f0       	breq	.+24     	; 0xee8 <CDC_Device_ProcessControlRequest+0x42>
 ed0:	82 32       	cpi	r24, 0x22	; 34
 ed2:	20 f4       	brcc	.+8      	; 0xedc <CDC_Device_ProcessControlRequest+0x36>
 ed4:	80 32       	cpi	r24, 0x20	; 32
 ed6:	09 f0       	breq	.+2      	; 0xeda <CDC_Device_ProcessControlRequest+0x34>
 ed8:	50 c0       	rjmp	.+160    	; 0xf7a <CDC_Device_ProcessControlRequest+0xd4>
 eda:	1b c0       	rjmp	.+54     	; 0xf12 <CDC_Device_ProcessControlRequest+0x6c>
 edc:	82 32       	cpi	r24, 0x22	; 34
 ede:	79 f1       	breq	.+94     	; 0xf3e <CDC_Device_ProcessControlRequest+0x98>
 ee0:	83 32       	cpi	r24, 0x23	; 35
 ee2:	09 f0       	breq	.+2      	; 0xee6 <CDC_Device_ProcessControlRequest+0x40>
 ee4:	4a c0       	rjmp	.+148    	; 0xf7a <CDC_Device_ProcessControlRequest+0xd4>
 ee6:	3b c0       	rjmp	.+118    	; 0xf5e <CDC_Device_ProcessControlRequest+0xb8>
 ee8:	80 91 30 02 	lds	r24, 0x0230
 eec:	81 3a       	cpi	r24, 0xA1	; 161
 eee:	09 f0       	breq	.+2      	; 0xef2 <CDC_Device_ProcessControlRequest+0x4c>
 ef0:	44 c0       	rjmp	.+136    	; 0xf7a <CDC_Device_ProcessControlRequest+0xd4>
 ef2:	80 91 e8 00 	lds	r24, 0x00E8
 ef6:	87 7f       	andi	r24, 0xF7	; 247
 ef8:	80 93 e8 00 	sts	0x00E8, r24
 efc:	ce 01       	movw	r24, r28
 efe:	0f 96       	adiw	r24, 0x0f	; 15
 f00:	67 e0       	ldi	r22, 0x07	; 7
 f02:	70 e0       	ldi	r23, 0x00	; 0
 f04:	3f dc       	rcall	.-1922   	; 0x784 <Endpoint_Write_Control_Stream_LE>
 f06:	80 91 e8 00 	lds	r24, 0x00E8
 f0a:	8b 77       	andi	r24, 0x7B	; 123
 f0c:	80 93 e8 00 	sts	0x00E8, r24
 f10:	34 c0       	rjmp	.+104    	; 0xf7a <CDC_Device_ProcessControlRequest+0xd4>
 f12:	80 91 30 02 	lds	r24, 0x0230
 f16:	81 32       	cpi	r24, 0x21	; 33
 f18:	81 f5       	brne	.+96     	; 0xf7a <CDC_Device_ProcessControlRequest+0xd4>
 f1a:	80 91 e8 00 	lds	r24, 0x00E8
 f1e:	87 7f       	andi	r24, 0xF7	; 247
 f20:	80 93 e8 00 	sts	0x00E8, r24
 f24:	ce 01       	movw	r24, r28
 f26:	0f 96       	adiw	r24, 0x0f	; 15
 f28:	67 e0       	ldi	r22, 0x07	; 7
 f2a:	70 e0       	ldi	r23, 0x00	; 0
 f2c:	8f dc       	rcall	.-1762   	; 0x84c <Endpoint_Read_Control_Stream_LE>
 f2e:	80 91 e8 00 	lds	r24, 0x00E8
 f32:	8e 77       	andi	r24, 0x7E	; 126
 f34:	80 93 e8 00 	sts	0x00E8, r24
 f38:	ce 01       	movw	r24, r28
 f3a:	8a d9       	rcall	.-3308   	; 0x250 <EVENT_CDC_Device_LineEncodingChanged>
 f3c:	1e c0       	rjmp	.+60     	; 0xf7a <CDC_Device_ProcessControlRequest+0xd4>
 f3e:	80 91 30 02 	lds	r24, 0x0230
 f42:	81 32       	cpi	r24, 0x21	; 33
 f44:	d1 f4       	brne	.+52     	; 0xf7a <CDC_Device_ProcessControlRequest+0xd4>
 f46:	80 91 e8 00 	lds	r24, 0x00E8
 f4a:	87 7f       	andi	r24, 0xF7	; 247
 f4c:	80 93 e8 00 	sts	0x00E8, r24
 f50:	70 da       	rcall	.-2848   	; 0x432 <Endpoint_ClearStatusStage>
 f52:	80 91 32 02 	lds	r24, 0x0232
 f56:	8d 87       	std	Y+13, r24	; 0x0d
 f58:	ce 01       	movw	r24, r28
 f5a:	ef de       	rcall	.-546    	; 0xd3a <CDC_Device_Event_Stub>
 f5c:	0e c0       	rjmp	.+28     	; 0xf7a <CDC_Device_ProcessControlRequest+0xd4>
 f5e:	80 91 30 02 	lds	r24, 0x0230
 f62:	81 32       	cpi	r24, 0x21	; 33
 f64:	51 f4       	brne	.+20     	; 0xf7a <CDC_Device_ProcessControlRequest+0xd4>
 f66:	80 91 e8 00 	lds	r24, 0x00E8
 f6a:	87 7f       	andi	r24, 0xF7	; 247
 f6c:	80 93 e8 00 	sts	0x00E8, r24
 f70:	60 da       	rcall	.-2880   	; 0x432 <Endpoint_ClearStatusStage>
 f72:	ce 01       	movw	r24, r28
 f74:	60 91 32 02 	lds	r22, 0x0232
 f78:	e0 de       	rcall	.-576    	; 0xd3a <CDC_Device_Event_Stub>
 f7a:	df 91       	pop	r29
 f7c:	cf 91       	pop	r28
 f7e:	08 95       	ret

00000f80 <_exit>:
 f80:	f8 94       	cli

00000f82 <__stop_program>:
 f82:	ff cf       	rjmp	.-2      	; 0xf82 <__stop_program>
